(dp1
(Vjiemian
S'retry'
p2
tp3
ccopy_reg
_reconstructor
p4
(cpyspider.libs.counter
TimebaseAverageWindowCounter
p5
c__builtin__
object
p6
NtRp7
(dp8
S'_first_data_time'
p9
F1482463249.56745
sS'window_size'
p10
F143.88493109742799
sS'times'
p11
ccollections
deque
p12
((lp13
F1482463249.56745
aF1482463439.2609439
aF1482463597.8278079
aF1482463847.9167509
aF1482463995.010262
aF1482466895.437021
aF1482467110.483268
aF1482467273.8968811
aF1482467529.7584081
aF1482467674.7089989
aI600
tRp14
sS'window_interval'
p15
I144
sS'values'
p16
g12
((lp17
I4
aI5
aI7
aI47
aI9
aI1
aI3
aI2
aI23
aI5
aI600
tRp18
sS'cache_value'
p19
I0
sS'max_window_size'
p20
I600
sS'cache_start'
p21
Nsbs(Vfmprc
g2
tp22
g4
(g5
g6
NtRp23
(dp24
g9
F1482464826.2800021
sg10
F132.93553856843047
sg11
g12
((lp25
F1482464826.2800021
aF1482464984.6609881
aF1482468528.1564951
aI600
tRp26
sg15
I144
sg16
g12
((lp27
I9
aI1
aI5
aI600
tRp28
sg19
I0
sg20
I600
sg21
Nsbs(S'chinaconsulate'
p29
S'pending'
p30
tp31
g4
(g5
g6
NtRp32
(dp33
g9
F1482464277.0887289
sg10
F136.7493674374289
sg11
g12
((lp34
F1482464277.0887289
aI600
tRp35
sg15
I144
sg16
g12
((lp36
I39
aI600
tRp37
sg19
I0
sg20
I600
sg21
Nsbs(Vkannz
p38
S'success'
p39
tp40
g4
(g5
g6
NtRp41
(dp42
g9
F1482465324.7298379
sg10
F129.47408161229558
sg11
g12
((lp43
F1482465324.7298379
aF1482465469.8447499
aF1482465613.980551
aF1482465758.0548589
aI600
tRp44
sg15
I144
sg16
g12
((lp45
I64
aI72
aI69
aI2
aI600
tRp46
sg19
I0
sg20
I600
sg21
Nsbs(Vchinaembassy
p47
g2
tp48
g4
(g5
g6
NtRp49
(dp50
g9
F1482464772.8948829
sg10
F133.3062688956658
sg11
g12
((lp51
F1482464772.8948829
aF1482468465.5079119
aI600
tRp52
sg15
I144
sg16
g12
((lp53
I4
aI2
aI600
tRp54
sg19
I0
sg20
I600
sg21
Nsbs(Vfmprc
p55
g39
tp56
g4
(g5
g6
NtRp57
(dp58
g9
F1482464715.676069
sg10
F133.70362150669098
sg11
g12
((lp59
F1482464715.676069
aF1482464859.871115
aI600
tRp60
sg15
I144
sg16
g12
((lp61
I33
aI45
aI600
tRp62
sg19
I0
sg20
I600
sg21
Nsbs(Vchinaconsulate
p63
g39
tp64
g4
(g5
g6
NtRp65
(dp66
g9
F1482464277.422344
sg10
F136.74705063137742
sg11
g12
((lp67
F1482464277.422344
aI600
tRp68
sg15
I144
sg16
g12
((lp69
I38
aI600
tRp70
sg19
I0
sg20
I600
sg21
Nsbs(S'chinaembassy'
g30
tp71
g4
(g5
g6
NtRp72
(dp73
g9
F1482464693.2265749
sg10
F133.85952110422983
sg11
g12
((lp74
F1482464693.2265749
aI600
tRp75
sg15
I144
sg16
g12
((lp76
I39
aI600
tRp77
sg19
I0
sg20
I600
sg21
Nsbs(S'jiemian'
g30
tp78
g4
(g5
g6
NtRp79
(dp80
g9
F1482463208.9065959
sg10
F144.16729822920428
sg11
g12
((lp81
F1482463208.9065959
aF1482463364.647047
aF1482463566.0346241
aF1482463808.4821279
aF1482464070.1560049
aI600
tRp82
sg15
I144
sg16
g12
((lp83
I99
aI70
aI130
aI1
aI1
aI600
tRp84
sg19
I0
sg20
I600
sg21
Nsbs(Vkannz
g2
tp85
g4
(g5
g6
NtRp86
(dp87
g9
F1482465659.926872
sg10
F127.14632436136405
sg11
g12
((lp88
F1482465659.926872
aF1482469325.9553699
aI600
tRp89
sg15
I144
sg16
g12
((lp90
I3
aI1
aI600
tRp91
sg19
I0
sg20
I600
sg21
Nsbs(S'fmprc'
g30
tp92
g4
(g5
g6
NtRp93
(dp94
g9
F1482464710.420198
sg10
F133.74012057648764
sg11
g12
((lp95
F1482464710.420198
aI600
tRp96
sg15
I144
sg16
g12
((lp97
I83
aI600
tRp98
sg19
I0
sg20
I600
sg21
Nsbs(Vjiemian
g39
tp99
g4
(g5
g6
NtRp100
(dp101
g9
F1482463209.3152561
sg10
F144.16446026994123
sg11
g12
((lp102
F1482463209.3152561
aF1482463358.241451
aF1482463503.428479
aF1482463649.4846661
aF1482463828.35726
aF1482463973.3485601
aF1482466900.830579
aI600
tRp103
sg15
I144
sg16
g12
((lp104
I54
aI67
aI52
aI37
aI24
aI32
aI1
aI600
tRp105
sg19
I0
sg20
I600
sg21
Nsbs(Vchinaembassy
p106
g39
tp107
g4
(g5
g6
NtRp108
(dp109
g9
F1482464693.6438119
sg10
F133.85662358999252
sg11
g12
((lp110
F1482464693.6438119
aF1482464838.3135209
aI600
tRp111
sg15
I144
sg16
g12
((lp112
I36
aI1
aI600
tRp113
sg19
I0
sg20
I600
sg21
Nsbs(Vchinaconsulate
p114
g2
tp115
g4
(g5
g6
NtRp116
(dp117
g9
F1482464322.9231501
sg10
F136.43107276989355
sg11
g12
((lp118
F1482464322.9231501
aF1482467970.1201539
aI600
tRp119
sg15
I144
sg16
g12
((lp120
I2
aI1
aI600
tRp121
sg19
I0
sg20
I600
sg21
Nsbs(S'kannz'
g30
tp122
g4
(g5
g6
NtRp123
(dp124
g9
F1482465324.3960609
sg10
F129.47639947301812
sg11
g12
((lp125
F1482465324.3960609
aF1482465673.110718
aI600
tRp126
sg15
I144
sg16
g12
((lp127
I171
aI40
aI600
tRp128
sg19
I0
sg20
I600
sg21
Nsbs.