(dp1
(Vw
S'failed'
tp2
ccopy_reg
_reconstructor
p3
(cpyspider.libs.counter
TotalCounter
p4
c__builtin__
object
p5
NtRp6
(dp7
S'cnt'
p8
I0
sbs(Vw
S'success'
tp9
g3
(g4
g5
NtRp10
(dp11
g8
I0
sbs(Vw
S'pending'
tp12
g3
(g4
g5
NtRp13
(dp14
g8
I0
sbs.