(dp1
(Vtoutiao
p2
S'retry'
p3
tp4
ccopy_reg
_reconstructor
p5
(cpyspider.libs.counter
TimebaseAverageWindowCounter
p6
c__builtin__
object
p7
NtRp8
(dp9
S'_first_data_time'
p10
F1481796434.4740591
sS'window_size'
p11
F75.635591352979347
sS'times'
p12
ccollections
deque
p13
((lp14
F1481796434.4740591
aF1481798794.2989459
aF1481799255.820394
aF1481799404.0735011
aF1481799548.8459589
aF1481800035.5528319
aF1481800216.3483031
aF1481800399.2891369
aF1481800778.7271259
aF1481803190.0508649
aF1481803727.31618
aF1481803989.9981401
aF1481804245.2873449
aF1481804459.584826
aI600
tRp15
sS'window_interval'
p16
I144
sS'values'
p17
g13
((lp18
I2
aI2
aI2
aI32
aI3
aI1
aI1
aI6
aI5
aI4
aI1
aI3
aI1
aI4
aI600
tRp19
sS'cache_value'
p20
I0
sS'max_window_size'
p21
I600
sS'cache_start'
p22
Nsbs(Vjiemian
g3
tp23
g5
(g6
g7
NtRp24
(dp25
g10
F1481792194.7611539
sg11
F105.07804182668526
sg12
g13
((lp26
F1481792194.7611539
aI600
tRp27
sg16
I144
sg17
g13
((lp28
I1
aI600
tRp29
sg20
I0
sg21
I600
sg22
Nsbs(Vwaijiao
p30
S'success'
p31
tp32
g5
(g6
g7
NtRp33
(dp34
g10
F1481788097.0780611
sg11
F133.53417459626993
sg12
g13
((lp35
F1481788097.0780611
aF1481799523.874171
aI600
tRp36
sg16
I144
sg17
g13
((lp37
I86
aI1
aI600
tRp38
sg20
I0
sg21
I600
sg22
Nsbs(S'waijiao'
S'pending'
p39
tp40
g5
(g6
g7
NtRp41
(dp42
g10
F1481788096.7279561
sg11
F133.53660585317346
sg12
g13
((lp43
F1481788096.7279561
aF1481799387.472759
aI600
tRp44
sg16
I144
sg17
g13
((lp45
I86
aI1
aI600
tRp46
sg20
I0
sg21
I600
sg22
Nsbs(S'jiemian'
g39
tp47
g5
(g6
g7
NtRp48
(dp49
g10
F1481792111.7362781
sg11
F105.65460353427463
sg12
g13
((lp50
F1481792111.7362781
aF1481792255.9657691
aF1481792558.3648641
aF1481799385.630409
aI600
tRp51
sg16
I144
sg17
g13
((lp52
I148
aI127
aI24
aI1
aI600
tRp53
sg20
I0
sg21
I600
sg22
Nsbs(Vtoutiao
p54
g31
tp55
g5
(g6
g7
NtRp56
(dp57
g10
F1481796379.0872779
sg11
F76.020221827758689
sg12
g13
((lp58
F1481796379.0872779
aF1481798649.9877591
aF1481798794.774518
aF1481799012.2037449
aF1481799256.5049751
aF1481799401.1500211
aF1481799552.609936
aF1481800400.103579
aF1481800797.7393899
aI600
tRp59
sg16
I144
sg17
g13
((lp60
I51
aI6
aI26
aI16
aI15
aI117
aI23
aI5
aI1
aI600
tRp61
sg20
I0
sg21
I600
sg22
Nsbs(Vjiemian
p62
g31
tp63
g5
(g6
g7
NtRp64
(dp65
g10
F1481792112.0950561
sg11
F105.65211199223995
sg12
g13
((lp66
F1481792112.0950561
aF1481792256.724134
aF1481792401.726867
aF1481792550.05179
aF1481796379.3466041
aF1481799492.006608
aI600
tRp67
sg16
I144
sg17
g13
((lp68
I98
aI89
aI65
aI41
aI6
aI1
aI600
tRp69
sg20
I0
sg21
I600
sg22
Nsbs(S'toutiao'
g39
tp70
g5
(g6
g7
NtRp71
(dp72
g10
F1481795990.0142751
sg11
F78.722117659118439
sg12
g13
((lp73
F1481795990.0142751
aF1481796379.2044909
aF1481798649.561738
aF1481799996.837774
aF1481800403.0720689
aI600
tRp74
sg16
I144
sg17
g13
((lp75
I1
aI51
aI220
aI1
aI1
aI600
tRp76
sg20
I0
sg21
I600
sg22
Nsbs.