(dp1
(Vtoutiao
S'retry'
tp2
ccopy_reg
_reconstructor
p3
(cpyspider.libs.counter
TimebaseAverageWindowCounter
p4
c__builtin__
object
p5
NtRp6
(dp7
S'_first_data_time'
p8
F1481796434.4740591
sS'window_size'
p9
I600
sS'times'
p10
ccollections
deque
p11
((lp12
F1481932811.272336
aF1481933028.2524469
aF1481936527.37375
aF1481936719.4377289
aF1481939948.5166349
aF1481945756.0048971
aF1481965500.475836
aI600
tRp13
sS'window_interval'
p14
I144
sS'values'
p15
g11
((lp16
I34
aI20
aI9
aI18
aI29
aI14
aI20
aI600
tRp17
sS'cache_value'
p18
I0
sS'max_window_size'
p19
I600
sS'cache_start'
p20
Nsbs(Vwaijiao
p21
S'success'
p22
tp23
g3
(g4
g5
NtRp24
(dp25
g8
F1481940767.5079989
sg9
F201.64231152832508
sg10
g11
((lp26
F1481940767.5079989
aI600
tRp27
sg14
I144
sg15
g11
((lp28
I3
aI600
tRp29
sg18
I0
sg19
I600
sg20
Nsbs(S'toutiao_test'
p30
S'pending'
p31
tp32
g3
(g4
g5
NtRp33
(dp34
g8
F1481963561.3612659
sg9
F43.351665173967682
sg10
g11
((lp35
F1481963561.3612659
aF1481963831.952826
aF1481964000.301827
aF1481964240.2574041
aF1481964480.4644649
aF1481965366.1332569
aF1481965560.278609
aF1481965800.3190849
aF1481966040.27669
aF1481966280.3332269
aF1481966520.269037
aF1481966760.3121769
aF1481967000.2603409
aI600
tRp36
sg14
I144
sg15
g11
((lp37
I13
aI3
aI2
aI2
aI2
aI3
aI2
aI2
aI2
aI2
aI2
aI2
aI3
aI600
tRp38
sg18
I0
sg19
I600
sg20
Nsbs(S'test'
g31
tp39
g3
(g4
g5
NtRp40
(dp41
g8
F1481962534.3612499
sg9
F50.483609118395378
sg10
g11
((lp42
F1481962534.3612499
aF1481962680.256269
aF1481962920.293324
aF1481963190.9530301
aF1481963400.3516321
aF1481963640.3575001
aF1481963880.288595
aF1481964156.363559
aF1481964360.271183
aF1481964600.288981
aF1481964840.3230031
aF1481965080.345969
aF1481965320.2874
aI600
tRp43
sg14
I144
sg15
g11
((lp44
I3
aI2
aI2
aI3
aI2
aI2
aI1
aI5
aI2
aI2
aI2
aI2
aI1
aI600
tRp45
sg18
I0
sg19
I600
sg20
Nsbs(Vtoutiao
S'failed'
tp46
g3
(g4
g5
NtRp47
(dp48
g8
F1481822415.8762159
sg9
I600
sg10
g11
((lp49
F1481892677.5580111
aF1481958128.3233161
aF1481958321.781172
aI600
tRp50
sg14
I144
sg15
g11
((lp51
I38
aI9
aI18
aI600
tRp52
sg18
I0
sg19
I600
sg20
Nsbs(Vchinaconsulate
p53
g22
tp54
g3
(g4
g5
NtRp55
(dp56
g8
F1481880008.9089429
sg9
I600
sg10
g11
((lp57
F1481940657.733057
aI600
tRp58
sg14
I144
sg15
g11
((lp59
I4
aI600
tRp60
sg18
I0
sg19
I600
sg20
Nsbs(Vrenmin
p61
S'failed'
p62
tp63
g3
(g4
g5
NtRp64
(dp65
g8
F1481886837.5418389
sg9
F576.15596645904907
sg10
g11
((lp66
F1481886837.5418389
aI600
tRp67
sg14
I144
sg15
g11
((lp68
I22
aI600
tRp69
sg18
I0
sg19
I600
sg20
Nsbs(Vtoutiao
S'success'
tp70
g3
(g4
g5
NtRp71
(dp72
g8
F1481796379.0872779
sg9
I600
sg10
g11
((lp73
F1481932803.1263571
aF1481937565.0984941
aF1481939389.9200649
aF1481939828.0316081
aF1481939980.7586989
aF1481940744.634546
aF1481965489.1605861
aI600
tRp74
sg14
I144
sg15
g11
((lp75
I20
aI2
aI1
aI1
aI44
aI1
aI13
aI600
tRp76
sg18
I0
sg19
I600
sg20
Nsbs(Vskykiwichina
p77
g62
tp78
g3
(g4
g5
NtRp79
(dp80
g8
F1481904927.00086
sg9
F450.53472145232888
sg10
g11
((lp81
F1481904927.00086
aI600
tRp82
sg14
I144
sg15
g11
((lp83
I6
aI600
tRp84
sg18
I0
sg19
I600
sg20
Nsbs(S'chinaconsulate'
g31
tp85
g3
(g4
g5
NtRp86
(dp87
g8
F1481880008.487798
sg9
I600
sg10
g11
((lp88
F1481940657.399363
aI600
tRp89
sg14
I144
sg15
g11
((lp90
I4
aI600
tRp91
sg18
I0
sg19
I600
sg20
Nsbs(S'chinaembassy'
g31
tp92
g3
(g4
g5
NtRp93
(dp94
g8
F1481879410.321985
sg9
I600
sg10
g11
((lp95
F1481940676.369359
aI600
tRp96
sg14
I144
sg15
g11
((lp97
I4
aI600
tRp98
sg18
I0
sg19
I600
sg20
Nsbs(S'chinesenzherald'
g31
tp99
g3
(g4
g5
NtRp100
(dp101
g8
F1481876055.347753
sg9
I600
sg10
g11
((lp102
F1481940747.3663809
aI600
tRp103
sg14
I144
sg15
g11
((lp104
I19
aI600
tRp105
sg18
I0
sg19
I600
sg20
Nsbs(Vweobo
p106
g22
tp107
g3
(g4
g5
NtRp108
(dp109
g8
F1481953933.2925079
sg9
F110.21325151456728
sg10
g11
((lp110
F1481953933.2925079
aF1481961620.798876
aF1481961838.6706469
aI600
tRp111
sg14
I144
sg15
g11
((lp112
I14
aI26
aI42
aI600
tRp113
sg18
I0
sg19
I600
sg20
Nsbs(Vtoutiao_test
p114
g22
tp115
g3
(g4
g5
NtRp116
(dp117
g8
F1481963561.703346
sg9
F43.349289562967087
sg10
g11
((lp118
F1481963561.703346
aF1481963832.361665
aF1481964001.4189129
aF1481964241.350574
aF1481964481.5989571
aF1481965366.5419829
aF1481965561.5793869
aF1481965801.2114699
aF1481966041.3605299
aF1481966281.3170321
aF1481966521.4779389
aF1481966761.2210841
aF1481967001.3870189
aI600
tRp119
sg14
I144
sg15
g11
((lp120
I13
aI3
aI2
aI2
aI2
aI3
aI2
aI2
aI2
aI2
aI2
aI2
aI3
aI600
tRp121
sg18
I0
sg19
I600
sg20
Nsbs(S'jiemian'
g31
tp122
g3
(g4
g5
NtRp123
(dp124
g8
F1481940745.978708
sg9
F201.79182031253973
sg10
g11
((lp125
F1481940745.978708
aI600
tRp126
sg14
I144
sg15
g11
((lp127
I54
aI600
tRp128
sg18
I0
sg19
I600
sg20
Nsbs(S'weobo'
g31
tp129
g3
(g4
g5
NtRp130
(dp131
g8
F1481953932.633074
sg9
F110.21783086823092
sg10
g11
((lp132
F1481953932.633074
aF1481961621.2082391
aF1481961838.269377
aI600
tRp133
sg14
I144
sg15
g11
((lp134
I33
aI16
aI74
aI600
tRp135
sg18
I0
sg19
I600
sg20
Nsbs(Vtest
p136
g22
tp137
g3
(g4
g5
NtRp138
(dp139
g8
F1481962534.678319
sg9
F50.481407201952408
sg10
g11
((lp140
F1481962534.678319
aF1481962680.615386
aF1481962920.6774509
aF1481963191.34496
aF1481963400.7190881
aF1481963640.8166821
aF1481963880.706542
aF1481964156.763957
aF1481964360.7891779
aF1481964600.790098
aF1481964840.673882
aF1481965080.7468159
aF1481965320.652745
aI600
tRp141
sg14
I144
sg15
g11
((lp142
I3
aI2
aI2
aI3
aI2
aI2
aI1
aI5
aI2
aI2
aI2
aI2
aI1
aI600
tRp143
sg18
I0
sg19
I600
sg20
Nsbs(Vskykiwichina
p144
g22
tp145
g3
(g4
g5
NtRp146
(dp147
g8
F1481871200.690614
sg9
I600
sg10
g11
((lp148
F1481940745.3024671
aI600
tRp149
sg14
I144
sg15
g11
((lp150
I45
aI600
tRp151
sg18
I0
sg19
I600
sg20
Nsbs(S'toutiao'
S'pending'
tp152
g3
(g4
g5
NtRp153
(dp154
g8
F1481795990.0142751
sg9
I600
sg10
g11
((lp155
F1481932800.4582701
aF1481937564.7731371
aF1481939389.503
aF1481939827.631088
aF1481939980.900908
aF1481940744.2507279
aF1481965488.818548
aI600
tRp156
sg14
I144
sg15
g11
((lp157
I47
aI2
aI1
aI2
aI57
aI1
aI23
aI600
tRp158
sg18
I0
sg19
I600
sg20
Nsbs(Vweobo
S'retry'
p159
tp160
g3
(g4
g5
NtRp161
(dp162
g8
F1481953938.249222
sg9
F110.17882977757189
sg10
g11
((lp163
F1481953938.249222
aF1481961620.9659431
aF1481961841.9785371
aF1481965476.6145749
aI600
tRp164
sg14
I144
sg15
g11
((lp165
I38
aI9
aI64
aI32
aI600
tRp166
sg18
I0
sg19
I600
sg20
Nsbs(Vchinesenzherald
p167
g159
tp168
g3
(g4
g5
NtRp169
(dp170
g8
F1481940777.9067991
sg9
F201.57009716663094
sg10
g11
((lp171
F1481940777.9067991
aI600
tRp172
sg14
I144
sg15
g11
((lp173
I2
aI600
tRp174
sg18
I0
sg19
I600
sg20
Nsbs(S'waijiao'
g31
tp175
g3
(g4
g5
NtRp176
(dp177
g8
F1481940763.621583
sg9
F201.66930048664412
sg10
g11
((lp178
F1481940763.621583
aI600
tRp179
sg14
I144
sg15
g11
((lp180
I3
aI600
tRp181
sg18
I0
sg19
I600
sg20
Nsbs(Vskykiwichina
g159
tp182
g3
(g4
g5
NtRp183
(dp184
g8
F1481871228.2136869
sg9
I600
sg10
g11
((lp185
F1481940788.2208841
aF1481945772.227041
aI600
tRp186
sg14
I144
sg15
g11
((lp187
I2
aI1
aI600
tRp188
sg18
I0
sg19
I600
sg20
Nsbs(Vrenmin
p189
g22
tp190
g3
(g4
g5
NtRp191
(dp192
g8
F1481861467.740813
sg9
I600
sg10
g11
((lp193
F1481940745.831162
aI600
tRp194
sg14
I144
sg15
g11
((lp195
I3
aI600
tRp196
sg18
I0
sg19
I600
sg20
Nsbs(Vchinesenzherald
p197
g22
tp198
g3
(g4
g5
NtRp199
(dp200
g8
F1481876055.6980829
sg9
I600
sg10
g11
((lp201
F1481940763.028326
aI600
tRp202
sg14
I144
sg15
g11
((lp203
I19
aI600
tRp204
sg18
I0
sg19
I600
sg20
Nsbs(Vchinaembassy
p205
g22
tp206
g3
(g4
g5
NtRp207
(dp208
g8
F1481879410.705735
sg9
I600
sg10
g11
((lp209
F1481940676.769587
aI600
tRp210
sg14
I144
sg15
g11
((lp211
I4
aI600
tRp212
sg18
I0
sg19
I600
sg20
Nsbs(S'skykiwichina'
g31
tp213
g3
(g4
g5
NtRp214
(dp215
g8
F1481871200.3151939
sg9
I600
sg10
g11
((lp216
F1481940744.768328
aI600
tRp217
sg14
I144
sg15
g11
((lp218
I46
aI600
tRp219
sg18
I0
sg19
I600
sg20
Nsbs(Vchinaembassy
p220
g62
tp221
g3
(g4
g5
NtRp222
(dp223
g8
F1481904694.491842
sg9
F452.14936860402423
sg10
g11
((lp224
F1481904694.491842
aI600
tRp225
sg14
I144
sg15
g11
((lp226
I4
aI600
tRp227
sg18
I0
sg19
I600
sg20
Nsbs(S'renmin'
g31
tp228
g3
(g4
g5
NtRp229
(dp230
g8
F1481861467.323678
sg9
I600
sg10
g11
((lp231
F1481940745.444649
aI600
tRp232
sg14
I144
sg15
g11
((lp233
I3
aI600
tRp234
sg18
I0
sg19
I600
sg20
Nsbs(Vjiemian
g22
tp235
g3
(g4
g5
NtRp236
(dp237
g8
F1481940754.3690751
sg9
F201.73355382515325
sg10
g11
((lp238
F1481940754.3690751
aI600
tRp239
sg14
I144
sg15
g11
((lp240
I54
aI600
tRp241
sg18
I0
sg19
I600
sg20
Nsbs.