(dp1
(Vtoutiao
S'retry'
p2
tp3
ccopy_reg
_reconstructor
p4
(cpyspider.libs.counter
TimebaseAverageWindowCounter
p5
c__builtin__
object
p6
NtRp7
(dp8
S'_first_data_time'
p9
F1484879348.1316409
sS'window_size'
p10
F24.097806684176128
sS'times'
p11
ccollections
deque
p12
((lp13
F1484879348.1316409
aI60
tRp14
sS'window_interval'
p15
I60
sS'values'
p16
g12
((lp17
I2
aI60
tRp18
sS'cache_value'
p19
I0
sS'max_window_size'
p20
I60
sS'cache_start'
p21
Nsbs(Vchinanews
S'success'
p22
tp23
g4
(g5
g6
NtRp24
(dp25
g9
F1484877096.607574
sg10
I60
sg11
g12
((lp26
F1484877241.990185
aF1484877307.906796
aI60
tRp27
sg15
I60
sg16
g12
((lp28
I5
aI1
aI60
tRp29
sg19
I0
sg20
I60
sg21
Nsbs(S'chinaconsulate'
S'pending'
p30
tp31
g4
(g5
g6
NtRp32
(dp33
g9
F1484876890.3980091
sg10
I60
sg11
g12
((lp34
F1484877600.1446099
aI60
tRp35
sg15
I60
sg16
g12
((lp36
I1
aI60
tRp37
sg19
I0
sg20
I60
sg21
Nsbs(Vaucklandcouncil
g2
tp38
g4
(g5
g6
NtRp39
(dp40
g9
F1484880508.879595
sg10
F4.7519891659418745
sg11
g12
((lp41
F1484880508.879595
aI60
tRp42
sg15
I60
sg16
g12
((lp43
I1
aI60
tRp44
sg19
I0
sg20
I60
sg21
Nsbs(Vchinaconsulate
S'success'
p45
tp46
g4
(g5
g6
NtRp47
(dp48
g9
F1484876890.698374
sg10
I60
sg11
g12
((lp49
F1484877603.1485701
aI60
tRp50
sg15
I60
sg16
g12
((lp51
I1
aI60
tRp52
sg19
I0
sg20
I60
sg21
Nsbs(Vjiemian
g2
tp53
g4
(g5
g6
NtRp54
(dp55
g9
F1484879286.453264
sg10
F25.125774534543357
sg11
g12
((lp56
F1484879286.453264
aF1484879346.825557
aF1484880312.0686669
aI60
tRp57
sg15
I60
sg16
g12
((lp58
I1
aI1
aI2
aI60
tRp59
sg19
I0
sg20
I60
sg21
Nsbs(S'stockstar'
S'pending'
p60
tp61
g4
(g5
g6
NtRp62
(dp63
g9
F1484879295.607446
sg10
F24.973199717203777
sg11
g12
((lp64
F1484879295.607446
aI60
tRp65
sg15
I60
sg16
g12
((lp66
I22
aI60
tRp67
sg19
I0
sg20
I60
sg21
Nsbs(S'skykiwichina'
S'pending'
p68
tp69
g4
(g5
g6
NtRp70
(dp71
g9
F1484877884.646184
sg10
F48.489229265848799
sg11
g12
((lp72
F1484877884.646184
aF1484878558.7793031
aI60
tRp73
sg15
I60
sg16
g12
((lp74
I1
aI1
aI60
tRp75
sg19
I0
sg20
I60
sg21
Nsbs(S'nbr'
g60
tp76
g4
(g5
g6
NtRp77
(dp78
g9
F1484879292.8097949
sg10
F25.01982051928838
sg11
g12
((lp79
F1484879292.8097949
aI60
tRp80
sg15
I60
sg16
g12
((lp81
I1
aI60
tRp82
sg19
I0
sg20
I60
sg21
Nsbs(Vtoutiao
S'success'
p83
tp84
g4
(g5
g6
NtRp85
(dp86
g9
F1484879347.0383971
sg10
F24.116027800242104
sg11
g12
((lp87
F1484879347.0383971
aI60
tRp88
sg15
I60
sg16
g12
((lp89
I1
aI60
tRp90
sg19
I0
sg20
I60
sg21
Nsbs(Vnzherald
g2
tp91
g4
(g5
g6
NtRp92
(dp93
g9
F1484879366.144522
sg10
F23.797587935129801
sg11
g12
((lp94
F1484879366.144522
aF1484879755.4921651
aF1484879817.0621331
aF1484879944.0056801
aF1484880265.062912
aI60
tRp95
sg15
I60
sg16
g12
((lp96
I3
aI5
aI9
aI1
aI12
aI60
tRp97
sg19
I0
sg20
I60
sg21
Nsbs(S'govt'
g60
tp98
g4
(g5
g6
NtRp99
(dp100
g9
F1484878658.385823
sg10
F35.593567498524983
sg11
g12
((lp101
F1484878658.385823
aF1484879186.0553601
aI60
tRp102
sg15
I60
sg16
g12
((lp103
I1
aI40
aI60
tRp104
sg19
I0
sg20
I60
sg21
Nsbs(Vskykiwichina
g2
tp105
g4
(g5
g6
NtRp106
(dp107
g9
F1484878575.3678279
sg10
F36.977201433976489
sg11
g12
((lp108
F1484878575.3678279
aF1484878662.2026191
aF1484878723.5705819
aF1484878852.616899
aF1484878994.894366
aF1484879093.8161759
aF1484879154.382901
aI60
tRp109
sg15
I60
sg16
g12
((lp110
I3
aI2
aI5
aI3
aI3
aI4
aI6
aI60
tRp111
sg19
I0
sg20
I60
sg21
Nsbs(S'etnet'
g68
tp112
g4
(g5
g6
NtRp113
(dp114
g9
F1484878322.3983071
sg10
F41.193363666534424
sg11
g12
((lp115
F1484878322.3983071
aF1484878547.143307
aI60
tRp116
sg15
I60
sg16
g12
((lp117
I1
aI19
aI60
tRp118
sg19
I0
sg20
I60
sg21
Nsbs(S'jiemian'
g60
tp119
g4
(g5
g6
NtRp120
(dp121
g9
F1484878762.821759
sg10
F33.85296668211619
sg11
g12
((lp122
F1484878762.821759
aF1484879194.109735
aF1484879711.555023
aF1484879976.9843049
aF1484880306.673774
aI60
tRp123
sg15
I60
sg16
g12
((lp124
I1
aI5
aI1
aI10
aI1
aI60
tRp125
sg19
I0
sg20
I60
sg21
Nsbs(Vgovt
g83
tp126
g4
(g5
g6
NtRp127
(dp128
g9
F1484879186.0516419
sg10
F26.799136984348298
sg11
g12
((lp129
F1484879186.0516419
aF1484879246.9832289
aF1484879307.174304
aI60
tRp130
sg15
I60
sg16
g12
((lp131
I14
aI9
aI18
aI60
tRp132
sg19
I0
sg20
I60
sg21
Nsbs(Vetnet
g83
tp133
g4
(g5
g6
NtRp134
(dp135
g9
F1484878547.1383841
sg10
F37.447695533434548
sg11
g12
((lp136
F1484878547.1383841
aI60
tRp137
sg15
I60
sg16
g12
((lp138
I2
aI60
tRp139
sg19
I0
sg20
I60
sg21
Nsbs(S'aucklandcouncil'
g30
tp140
g4
(g5
g6
NtRp141
(dp142
g9
F1484876713.6047609
sg10
I60
sg11
g12
((lp143
F1484877600.137898
aI60
tRp144
sg15
I60
sg16
g12
((lp145
I2
aI60
tRp146
sg19
I0
sg20
I60
sg21
Nsbs(Vnzherald
g83
tp147
g4
(g5
g6
NtRp148
(dp149
g9
F1484879333.8652329
sg10
F24.335576482613881
sg11
g12
((lp150
F1484879333.8652329
aF1484879431.395973
aF1484879769.5741529
aF1484879837.3929651
aF1484879959.1751399
aF1484880482.7385399
aI60
tRp151
sg15
I60
sg16
g12
((lp152
I6
aI5
aI5
aI6
aI8
aI5
aI60
tRp153
sg19
I0
sg20
I60
sg21
Nsbs(Vjrj
g83
tp154
g4
(g5
g6
NtRp155
(dp156
g9
F1484879194.294673
sg10
F26.661741367975871
sg11
g12
((lp157
F1484879194.294673
aF1484879298.8259051
aF1484879367.065567
aF1484879977.0172839
aF1484880306.410327
aI60
tRp158
sg15
I60
sg16
g12
((lp159
I2
aI42
aI1
aI1
aI6
aI60
tRp160
sg19
I0
sg20
I60
sg21
Nsbs(S'chinesenzherald'
g68
tp161
g4
(g5
g6
NtRp162
(dp163
g9
F1484878269.218883
sg10
F42.079676898320514
sg11
g12
((lp164
F1484878269.218883
aF1484878544.7271161
aF1484878771.2832041
aF1484878852.7078111
aI60
tRp165
sg15
I60
sg16
g12
((lp166
I1
aI41
aI10
aI42
aI60
tRp167
sg19
I0
sg20
I60
sg21
Nsbs(Vstockstar
g83
tp168
g4
(g5
g6
NtRp169
(dp170
g9
F1484879347.0202229
sg10
F24.116319886843364
sg11
g12
((lp171
F1484879347.0202229
aF1484879437.0253849
aF1484879757.000154
aF1484879820.6823831
aI60
tRp172
sg15
I60
sg16
g12
((lp173
I5
aI4
aI10
aI2
aI60
tRp174
sg19
I0
sg20
I60
sg21
Nsbs(S'jrj'
g60
tp175
g4
(g5
g6
NtRp176
(dp177
g9
F1484878844.777992
sg10
F32.487019181251526
sg11
g12
((lp178
F1484878844.777992
aF1484879194.3492341
aF1484879712.8567679
aF1484879977.0755999
aF1484880306.4218431
aI60
tRp179
sg15
I60
sg16
g12
((lp180
I1
aI48
aI1
aI1
aI5
aI60
tRp181
sg19
I0
sg20
I60
sg21
Nsbs(Vskykiwichina
g22
tp182
g4
(g5
g6
NtRp183
(dp184
g9
F1484877886.8538799
sg10
F48.45243413448334
sg11
g12
((lp185
F1484877886.8538799
aF1484877985.676549
aF1484878058.217454
aF1484878122.028765
aF1484878207.727536
aF1484878280.0557621
aF1484878397.4462099
aF1484878461.477788
aF1484878662.3208361
aI60
tRp186
sg15
I60
sg16
g12
((lp187
I2
aI4
aI2
aI1
aI3
aI3
aI6
aI1
aI1
aI60
tRp188
sg19
I0
sg20
I60
sg21
Nsbs(Vnbr
g83
tp189
g4
(g5
g6
NtRp190
(dp191
g9
F1484879333.6381731
sg10
F24.339347330729165
sg11
g12
((lp192
F1484879333.6381731
aI60
tRp193
sg15
I60
sg16
g12
((lp194
I1
aI60
tRp195
sg19
I0
sg20
I60
sg21
Nsbs(S'kannz'
g60
tp196
g4
(g5
g6
NtRp197
(dp198
g9
F1484878907.2361901
sg10
F31.446063566207886
sg11
g12
((lp199
F1484878907.2361901
aF1484879199.827924
aF1484879713.4594879
aF1484879976.9980299
aI60
tRp200
sg15
I60
sg16
g12
((lp201
I1
aI7
aI1
aI3
aI60
tRp202
sg19
I0
sg20
I60
sg21
Nsbs(S'toutiao'
g60
tp203
g4
(g5
g6
NtRp204
(dp205
g9
F1484879297.2158799
sg10
F24.946402899424235
sg11
g12
((lp206
F1484879297.2158799
aI60
tRp207
sg15
I60
sg16
g12
((lp208
I1
aI60
tRp209
sg19
I0
sg20
I60
sg21
Nsbs(Vchinaqw
g2
tp210
g4
(g5
g6
NtRp211
(dp212
g9
F1484878771.2630179
sg10
F33.712275302410127
sg11
g12
((lp213
F1484878771.2630179
aF1484878852.7030959
aF1484878960.8543291
aF1484879178.7980471
aI60
tRp214
sg15
I60
sg16
g12
((lp215
I1
aI4
aI2
aI6
aI60
tRp216
sg19
I0
sg20
I60
sg21
Nsbs(S'test'
S'pending'
tp217
g4
(g5
g6
NtRp218
(dp219
g9
F1484791527.8801329
sg10
I60
sg11
g12
((lp220
F1484879296.311281
aI60
tRp221
sg15
I60
sg16
g12
((lp222
I1
aI60
tRp223
sg19
I0
sg20
I60
sg21
Nsbs(Vchinesenzherald
g2
tp224
g4
(g5
g6
NtRp225
(dp226
g9
F1484878582.0738931
sg10
F36.86542629798253
sg11
g12
((lp227
F1484878582.0738931
aF1484878662.3128741
aF1484878723.863394
aF1484878877.0050189
aF1484878998.2090909
aF1484879093.919143
aF1484879154.6025691
aF1484879231.9936421
aF1484879292.0864151
aI60
tRp228
sg15
I60
sg16
g12
((lp229
I6
aI10
aI15
aI2
aI6
aI16
aI51
aI22
aI8
aI60
tRp230
sg19
I0
sg20
I60
sg21
Nsbs(S'gold678'
g60
tp231
g4
(g5
g6
NtRp232
(dp233
g9
F1484878590.612808
sg10
F36.72310471534729
sg11
g12
((lp234
F1484878590.612808
aF1484879180.2307329
aI60
tRp235
sg15
I60
sg16
g12
((lp236
I1
aI11
aI60
tRp237
sg19
I0
sg20
I60
sg21
Nsbs(S'nzherald'
g60
tp238
g4
(g5
g6
NtRp239
(dp240
g9
F1484879293.3033891
sg10
F25.011607031027477
sg11
g12
((lp241
F1484879293.3033891
aF1484880482.451961
aI60
tRp242
sg15
I60
sg16
g12
((lp243
I45
aI5
aI60
tRp244
sg19
I0
sg20
I60
sg21
Nsbs(Vkannz
g83
tp245
g4
(g5
g6
NtRp246
(dp247
g9
F1484879199.835022
sg10
F26.569416165351868
sg11
g12
((lp248
F1484879199.835022
aF1484879977.0207231
aF1484880306.413713
aI60
tRp249
sg15
I60
sg16
g12
((lp250
I4
aI1
aI3
aI60
tRp251
sg19
I0
sg20
I60
sg21
Nsbs(Vjrj
g2
tp252
g4
(g5
g6
NtRp253
(dp254
g9
F1484879196.099515
sg10
F26.631660266717276
sg11
g12
((lp255
F1484879196.099515
aF1484879289.4694779
aF1484879350.4379499
aF1484879766.3752251
aI60
tRp256
sg15
I60
sg16
g12
((lp257
I20
aI18
aI5
aI3
aI60
tRp258
sg19
I0
sg20
I60
sg21
Nsbs(Vtest
g83
tp259
g4
(g5
g6
NtRp260
(dp261
g9
F1484879347.034924
sg10
F24.116078531742097
sg11
g12
((lp262
F1484879347.034924
aI60
tRp263
sg15
I60
sg16
g12
((lp264
I1
aI60
tRp265
sg19
I0
sg20
I60
sg21
Nsbs(Vsouthcn
g83
tp266
g4
(g5
g6
NtRp267
(dp268
g9
F1484879347.017076
sg10
F24.11637059847514
sg11
g12
((lp269
F1484879347.017076
aF1484879424.364382
aF1484879784.061548
aF1484879851.7671781
aI60
tRp270
sg15
I60
sg16
g12
((lp271
I2
aI2
aI5
aI2
aI60
tRp272
sg19
I0
sg20
I60
sg21
Nsbs(Vrenmin
g83
tp273
g4
(g5
g6
NtRp274
(dp275
g9
F1484879333.8685141
sg10
F24.335527714093526
sg11
g12
((lp276
F1484879333.8685141
aI60
tRp277
sg15
I60
sg16
g12
((lp278
I2
aI60
tRp279
sg19
I0
sg20
I60
sg21
Nsbs(S'southcn'
g60
tp280
g4
(g5
g6
NtRp281
(dp282
g9
F1484879294.8034
sg10
F24.986598332722981
sg11
g12
((lp283
F1484879294.8034
aF1484879356.0800719
aI60
tRp284
sg15
I60
sg16
g12
((lp285
I2
aI30
aI60
tRp286
sg19
I0
sg20
I60
sg21
Nsbs(Vaucklandcouncil
g45
tp287
g4
(g5
g6
NtRp288
(dp289
g9
F1484876713.903688
sg10
I60
sg11
g12
((lp290
F1484877602.1441181
aI60
tRp291
sg15
I60
sg16
g12
((lp292
I2
aI60
tRp293
sg19
I0
sg20
I60
sg21
Nsbs(Vchinaqw
g83
tp294
g4
(g5
g6
NtRp295
(dp296
g9
F1484878547.1316741
sg10
F37.447798101107281
sg11
g12
((lp297
F1484878547.1316741
aF1484878770.963141
aF1484878908.050658
aF1484879185.2487371
aI60
tRp298
sg15
I60
sg16
g12
((lp299
I2
aI2
aI1
aI1
aI60
tRp300
sg19
I0
sg20
I60
sg21
Nsbs(Vchinesenzherald
g83
tp301
g4
(g5
g6
NtRp302
(dp303
g9
F1484878544.723676
sg10
F37.487930134932199
sg11
g12
((lp304
F1484878544.723676
aF1484878738.039916
aF1484878852.7357271
aF1484879094.4239409
aF1484879154.5907221
aF1484879290.9785681
aI60
tRp305
sg15
I60
sg16
g12
((lp306
I6
aI3
aI6
aI1
aI15
aI2
aI60
tRp307
sg19
I0
sg20
I60
sg21
Nsbs(Vetnet
g2
tp308
g4
(g5
g6
NtRp309
(dp310
g9
F1484878582.411047
sg10
F36.859817600250246
sg11
g12
((lp311
F1484878582.411047
aF1484878662.357121
aF1484878723.882293
aF1484878859.947293
aF1484878960.8618031
aF1484879150.9680231
aI60
tRp312
sg15
I60
sg16
g12
((lp313
I2
aI3
aI5
aI5
aI10
aI18
aI60
tRp314
sg19
I0
sg20
I60
sg21
Nsbs(Vsouthcn
g2
tp315
g4
(g5
g6
NtRp316
(dp317
g9
F1484879381.010654
sg10
F23.549810568491619
sg11
g12
((lp318
F1484879381.010654
aF1484879455.333461
aF1484879754.7979259
aF1484879821.489125
aF1484879930.717746
aF1484880264.456502
aI60
tRp319
sg15
I60
sg16
g12
((lp320
I4
aI1
aI6
aI11
aI4
aI16
aI60
tRp321
sg19
I0
sg20
I60
sg21
Nsbs(Vchinaembassy
g22
tp322
g4
(g5
g6
NtRp323
(dp324
g9
F1484877093.1109331
sg10
I60
sg11
g12
((lp325
F1484877225.6405461
aF1484877289.5449419
aI60
tRp326
sg15
I60
sg16
g12
((lp327
I7
aI9
aI60
tRp328
sg19
I0
sg20
I60
sg21
Nsbs(S'fmprc'
g68
tp329
g4
(g5
g6
NtRp330
(dp331
g9
F1484878441.2954321
sg10
F39.211737747987108
sg11
g12
((lp332
F1484878441.2954321
aF1484878547.150562
aI60
tRp333
sg15
I60
sg16
g12
((lp334
I1
aI1
aI60
tRp335
sg19
I0
sg20
I60
sg21
Nsbs(Vstockstar
g2
tp336
g4
(g5
g6
NtRp337
(dp338
g9
F1484879430.6986279
sg10
F22.721679584185281
sg11
g12
((lp339
F1484879430.6986279
aF1484879951.237689
aI60
tRp340
sg15
I60
sg16
g12
((lp341
I1
aI1
aI60
tRp342
sg19
I0
sg20
I60
sg21
Nsbs(Vgold678
g2
tp343
g4
(g5
g6
NtRp344
(dp345
g9
F1484879211.5971019
sg10
F26.373366085688271
sg11
g12
((lp346
F1484879211.5971019
aF1484879298.0197909
aI60
tRp347
sg15
I60
sg16
g12
((lp348
I7
aI7
aI60
tRp349
sg19
I0
sg20
I60
sg21
Nsbs(S'weibo'
g60
tp350
g4
(g5
g6
NtRp351
(dp352
g9
F1484879297.9184711
sg10
F24.934681514898937
sg11
g12
((lp353
F1484879297.9184711
aI60
tRp354
sg15
I60
sg16
g12
((lp355
I1
aI60
tRp356
sg19
I0
sg20
I60
sg21
Nsbs(Vgold678
g83
tp357
g4
(g5
g6
NtRp358
(dp359
g9
F1484879180.227107
sg10
F26.896199532349904
sg11
g12
((lp360
F1484879180.227107
aF1484879246.661818
aI60
tRp361
sg15
I60
sg16
g12
((lp362
I4
aI1
aI60
tRp363
sg19
I0
sg20
I60
sg21
Nsbs(Vfmprc
g83
tp364
g4
(g5
g6
NtRp365
(dp366
g9
F1484878547.1349759
sg10
F37.447745168209075
sg11
g12
((lp367
F1484878547.1349759
aI60
tRp368
sg15
I60
sg16
g12
((lp369
I2
aI60
tRp370
sg19
I0
sg20
I60
sg21
Nsbs(Vkannz
g2
tp371
g4
(g5
g6
NtRp372
(dp373
g9
F1484879242.0389609
sg10
F25.86601696809133
sg11
g12
((lp374
F1484879242.0389609
aF1484879313.2978981
aI60
tRp375
sg15
I60
sg16
g12
((lp376
I4
aI4
aI60
tRp377
sg19
I0
sg20
I60
sg21
Nsbs(S'renmin'
g60
tp378
g4
(g5
g6
NtRp379
(dp380
g9
F1484879293.8978441
sg10
F25.001705348491669
sg11
g12
((lp381
F1484879293.8978441
aI60
tRp382
sg15
I60
sg16
g12
((lp383
I2
aI60
tRp384
sg19
I0
sg20
I60
sg21
Nsbs(Vweibo
g83
tp385
g4
(g5
g6
NtRp386
(dp387
g9
F1484879347.041539
sg10
F24.115963518619537
sg11
g12
((lp388
F1484879347.041539
aI60
tRp389
sg15
I60
sg16
g12
((lp390
I1
aI60
tRp391
sg19
I0
sg20
I60
sg21
Nsbs(Vjiemian
g83
tp392
g4
(g5
g6
NtRp393
(dp394
g9
F1484879194.1423709
sg10
F26.664289617538451
sg11
g12
((lp395
F1484879194.1423709
aF1484879977.0136731
aF1484880306.417197
aI60
tRp396
sg15
I60
sg16
g12
((lp397
I35
aI1
aI10
aI60
tRp398
sg19
I0
sg20
I60
sg21
Nsbs(S'chinaqw'
g68
tp399
g4
(g5
g6
NtRp400
(dp401
g9
F1484878192.2631259
sg10
F43.362273716926573
sg11
g12
((lp402
F1484878192.2631259
aF1484878547.153815
aI60
tRp403
sg15
I60
sg16
g12
((lp404
I1
aI11
aI60
tRp405
sg19
I0
sg20
I60
sg21
Nsbs.