(dp1
(Vchinaconsulate
S'pending'
p2
tp3
ccopy_reg
_reconstructor
p4
(cpyspider.libs.counter
TimebaseAverageWindowCounter
p5
c__builtin__
object
p6
NtRp7
(dp8
S'_first_data_time'
p9
F1486180800.2335711
sS'window_size'
p10
I600
sS'times'
p11
ccollections
deque
p12
((lp13
F1486317600.1463139
aF1486336163.4743011
aF1486375208.5812609
aI600
tRp14
sS'window_interval'
p15
I144
sS'values'
p16
g12
((lp17
I1
aI1
aI1
aI600
tRp18
sS'cache_value'
p19
I0
sS'max_window_size'
p20
I600
sS'cache_start'
p21
Nsbs(Vchinanews
S'success'
p22
tp23
g4
(g5
g6
NtRp24
(dp25
g9
F1486180802.8526151
sg10
I600
sg11
g12
((lp26
F1486317602.9458909
aF1486375215.9503801
aF1486375605.0848341
aF1486376115.14259
aI600
tRp27
sg15
I144
sg16
g12
((lp28
I1
aI1
aI1
aI1
aI600
tRp29
sg19
I0
sg20
I600
sg21
Nsbs(Vstockstar
g2
tp30
g4
(g5
g6
NtRp31
(dp32
g9
F1486180800.226553
sg10
I600
sg11
g12
((lp33
F1486317600.142967
aF1486336163.498415
aF1486375208.422344
aI600
tRp34
sg15
I144
sg16
g12
((lp35
I1
aI1
aI1
aI600
tRp36
sg19
I0
sg20
I600
sg21
Nsbs(S'skykiwichina'
g2
tp37
g4
(g5
g6
NtRp38
(dp39
g9
F1486284991.8526061
sg10
I600
sg11
g12
((lp40
F1486312054.9168439
aF1486317600.549145
aF1486324800.1951029
aF1486332000.1213629
aF1486339935.5262139
aF1486340729.394659
aF1486361872.3654139
aF1486362979.586448
aI600
tRp41
sg15
I144
sg16
g12
((lp42
I1
aI1
aI1
aI14
aI1
aI15
aI1
aI86
aI600
tRp43
sg19
I0
sg20
I600
sg21
Nsbs(Vjiemian
g22
tp44
g4
(g5
g6
NtRp45
(dp46
g9
F1486180801.944124
sg10
I600
sg11
g12
((lp47
F1486317602.5355971
aF1486336166.3365691
aF1486336685.795903
aF1486336940.5472331
aF1486337201.7532051
aF1486375219.4822359
aF1486375605.260175
aF1486376242.8065939
aI600
tRp48
sg15
I144
sg16
g12
((lp49
I10
aI6
aI1
aI1
aI2
aI3
aI1
aI1
aI600
tRp50
sg19
I0
sg20
I600
sg21
Nsbs(Vnzherald
S'retry'
p51
tp52
g4
(g5
g6
NtRp53
(dp54
g9
F1486180625.9460089
sg10
I600
sg11
g12
((lp55
F1486297581.1654611
aF1486317862.220387
aF1486318118.0451109
aF1486321850.694068
aF1486336685.7893381
aF1486337074.260432
aF1486337457.116142
aF1486337727.187216
aF1486337986.67607
aF1486338763.5753069
aF1486339023.2620239
aF1486339284.5721819
aF1486339547.0640221
aF1486339807.35271
aF1486340072.552093
aF1486340332.3152471
aF1486346529.1307061
aF1486360801.805146
aF1486361461.6334081
aF1486361733.1726079
aI600
tRp56
sg15
I144
sg16
g12
((lp57
I1
aI2
aI2
aI2
aI1
aI1
aI2
aI2
aI2
aI2
aI2
aI2
aI1
aI6
aI2
aI2
aI1
aI2
aI2
aI2
aI600
tRp58
sg19
I0
sg20
I600
sg21
Nsbs(Vchinanews
g2
tp59
g4
(g5
g6
NtRp60
(dp61
g9
F1486180800.4973581
sg10
I600
sg11
g12
((lp62
F1486317600.475101
aF1486375204.186918
aI600
tRp63
sg15
I144
sg16
g12
((lp64
I1
aI8
aI600
tRp65
sg19
I0
sg20
I600
sg21
Nsbs(Vfmprc
g51
tp66
g4
(g5
g6
NtRp67
(dp68
g9
F1486231320.8930049
sg10
I600
sg11
g12
((lp69
F1486337987.0626409
aI600
tRp70
sg15
I144
sg16
g12
((lp71
I1
aI600
tRp72
sg19
I0
sg20
I600
sg21
Nsbs(Vgovt
g2
tp73
g4
(g5
g6
NtRp74
(dp75
g9
F1486180800.137115
sg10
I600
sg11
g12
((lp76
F1486317600.1280611
aF1486336163.71597
aF1486375200.334264
aI600
tRp77
sg15
I144
sg16
g12
((lp78
I40
aI40
aI39
aI600
tRp79
sg19
I0
sg20
I600
sg21
Nsbs(Vsouthcn
g22
tp80
g4
(g5
g6
NtRp81
(dp82
g9
F1486180595.54673
sg10
I600
sg11
g12
((lp83
F1486296817.2131569
aF1486297111.8872459
aF1486298833.0731759
aF1486359420.375458
aF1486359680.574383
aF1486359937.7762439
aF1486360192.8474929
aF1486360386.311487
aF1486360642.746357
aF1486361057.8103991
aF1486375216.6103411
aF1486375477.7091291
aF1486375732.501087
aF1486376498.6018331
aI600
tRp84
sg15
I144
sg16
g12
((lp85
I1
aI1
aI1
aI2
aI2
aI2
aI1
aI2
aI2
aI1
aI2
aI1
aI1
aI1
aI600
tRp86
sg19
I0
sg20
I600
sg21
Nsbs(Vetnet
g2
tp87
g4
(g5
g6
NtRp88
(dp89
g9
F1486180800.5617001
sg10
I600
sg11
g12
((lp90
F1486317600.542583
aF1486336163.8337989
aF1486375207.50349
aI600
tRp91
sg15
I144
sg16
g12
((lp92
I1
aI1
aI1
aI600
tRp93
sg19
I0
sg20
I600
sg21
Nsbs(Vnzherald
g2
tp94
g4
(g5
g6
NtRp95
(dp96
g9
F1486180800.2440901
sg10
I600
sg11
g12
((lp97
F1486317600.156137
aF1486336163.4302559
aF1486348341.372592
aF1486375200.501338
aI600
tRp98
sg15
I144
sg16
g12
((lp99
I6
aI11
aI1
aI4
aI600
tRp100
sg19
I0
sg20
I600
sg21
Nsbs(Vgovt
g22
tp101
g4
(g5
g6
NtRp102
(dp103
g9
F1486180622.121263
sg10
I600
sg11
g12
((lp104
F1486317730.921222
aF1486336167.7449069
aF1486336940.563818
aF1486337329.13674
aF1486337591.552578
aF1486337858.6860681
aI600
tRp105
sg15
I144
sg16
g12
((lp106
I40
aI5
aI1
aI2
aI2
aI30
aI600
tRp107
sg19
I0
sg20
I600
sg21
Nsbs(Vetnet
g22
tp108
g4
(g5
g6
NtRp109
(dp110
g9
F1486180803.2752719
sg10
I600
sg11
g12
((lp111
F1486317602.0319221
aF1486336165.73682
aF1486375221.0617521
aI600
tRp112
sg15
I144
sg16
g12
((lp113
I1
aI1
aI1
aI600
tRp114
sg19
I0
sg20
I600
sg21
Nsbs(Vaucklandcouncil
g2
tp115
g4
(g5
g6
NtRp116
(dp117
g9
F1486180800.1821239
sg10
I600
sg11
g12
((lp118
F1486317600.3554411
aF1486336163.4538071
aF1486375208.079809
aI600
tRp119
sg15
I144
sg16
g12
((lp120
I2
aI2
aI2
aI600
tRp121
sg19
I0
sg20
I600
sg21
Nsbs(Vsouthcn
S'failed'
p122
tp123
g4
(g5
g6
NtRp124
(dp125
g9
F1486206310.542953
sg10
I600
sg11
g12
((lp126
F1486318307.1320021
aI600
tRp127
sg15
I144
sg16
g12
((lp128
I1
aI600
tRp129
sg19
I0
sg20
I600
sg21
Nsbs(Vjrj
g22
tp130
g4
(g5
g6
NtRp131
(dp132
g9
F1486180803.6615269
sg10
I600
sg11
g12
((lp133
F1486317602.0356431
aF1486336165.7533741
aF1486375221.245374
aI600
tRp134
sg15
I144
sg16
g12
((lp135
I1
aI1
aI1
aI600
tRp136
sg19
I0
sg20
I600
sg21
Nsbs(Vjiemian
g2
tp137
g4
(g5
g6
NtRp138
(dp139
g9
F1486180800.1336229
sg10
I600
sg11
g12
((lp140
F1486317600.1833539
aF1486336163.426764
aF1486375200.6518221
aI600
tRp141
sg15
I144
sg16
g12
((lp142
I10
aI10
aI9
aI600
tRp143
sg19
I0
sg20
I600
sg21
Nsbs(Vstockstar
g22
tp144
g4
(g5
g6
NtRp145
(dp146
g9
F1486180802.980432
sg10
I600
sg11
g12
((lp147
F1486317601.8288381
aF1486336165.7312801
aF1486375219.6493311
aI600
tRp148
sg15
I144
sg16
g12
((lp149
I1
aI1
aI1
aI600
tRp150
sg19
I0
sg20
I600
sg21
Nsbs(Vjrj
g2
tp151
g4
(g5
g6
NtRp152
(dp153
g9
F1486180800.4584341
sg10
I600
sg11
g12
((lp154
F1486317600.124505
aF1486336163.4163051
aF1486375203.150815
aI600
tRp155
sg15
I144
sg16
g12
((lp156
I1
aI1
aI8
aI600
tRp157
sg19
I0
sg20
I600
sg21
Nsbs(Vsouthcn
g51
tp158
g4
(g5
g6
NtRp159
(dp160
g9
F1486180802.460346
sg10
I600
sg11
g12
((lp161
F1486317731.4840679
aF1486317990.198611
aF1486318245.9091411
aF1486337986.8611939
aF1486339412.8442349
aF1486339807.3452001
aF1486340332.3116939
aF1486341259.169915
aF1486343854.636241
aF1486346529.134691
aF1486348615.112299
aI600
tRp162
sg15
I144
sg16
g12
((lp163
I1
aI1
aI1
aI1
aI1
aI2
aI1
aI1
aI1
aI1
aI1
aI600
tRp164
sg19
I0
sg20
I600
sg21
Nsbs(Vkannz
g2
tp165
g4
(g5
g6
NtRp166
(dp167
g9
F1486180800.3069999
sg10
I600
sg11
g12
((lp168
F1486317600.1868579
aF1486336163.4336679
aF1486375202.8920381
aI600
tRp169
sg15
I144
sg16
g12
((lp170
I4
aI3
aI3
aI600
tRp171
sg19
I0
sg20
I600
sg21
Nsbs(Vchinesenzherald
g51
tp172
g4
(g5
g6
NtRp173
(dp174
g9
F1486180818.855114
sg10
I600
sg11
g12
((lp175
F1486336940.5400529
aF1486375987.7429669
aI600
tRp176
sg15
I144
sg16
g12
((lp177
I1
aI1
aI600
tRp178
sg19
I0
sg20
I600
sg21
Nsbs(Vgold678
g2
tp179
g4
(g5
g6
NtRp180
(dp181
g9
F1486180800.469228
sg10
I600
sg11
g12
((lp182
F1486317600.131624
aF1486336163.423285
aF1486375203.468369
aI600
tRp183
sg15
I144
sg16
g12
((lp184
I1
aI1
aI8
aI600
tRp185
sg19
I0
sg20
I600
sg21
Nsbs(Vnzherald
g22
tp186
g4
(g5
g6
NtRp187
(dp188
g9
F1486180802.9836321
sg10
I600
sg11
g12
((lp189
F1486317731.0029819
aF1486336168.3487
aF1486359422.8903551
aI600
tRp190
sg15
I144
sg16
g12
((lp191
I4
aI4
aI1
aI600
tRp192
sg19
I0
sg20
I600
sg21
Nsbs(Vkannz
g22
tp193
g4
(g5
g6
NtRp194
(dp195
g9
F1486180802.447439
sg10
I600
sg11
g12
((lp196
F1486317602.553858
aF1486336165.325192
aF1486375605.6610091
aF1486376115.4513431
aI600
tRp197
sg15
I144
sg16
g12
((lp198
I4
aI3
aI1
aI1
aI600
tRp199
sg19
I0
sg20
I600
sg21
Nsbs(Vchinaconsulate
g22
tp200
g4
(g5
g6
NtRp201
(dp202
g9
F1486180878.4559481
sg10
I600
sg11
g12
((lp203
F1486317731.179028
aF1486336552.3898211
aF1486375224.1440339
aI600
tRp204
sg15
I144
sg16
g12
((lp205
I1
aI1
aI1
aI600
tRp206
sg19
I0
sg20
I600
sg21
Nsbs(Vchinaembassy
g2
tp207
g4
(g5
g6
NtRp208
(dp209
g9
F1486180800.2230971
sg10
I600
sg11
g12
((lp210
F1486336163.4914999
aI600
tRp211
sg15
I144
sg16
g12
((lp212
I1
aI600
tRp213
sg19
I0
sg20
I600
sg21
Nsbs(Vrenmin
g22
tp214
g4
(g5
g6
NtRp215
(dp216
g9
F1486180593.938282
sg10
I600
sg11
g12
((lp217
F1486317862.2262981
aF1486336165.9360261
aF1486375221.4460149
aI600
tRp218
sg15
I144
sg16
g12
((lp219
I1
aI1
aI1
aI600
tRp220
sg19
I0
sg20
I600
sg21
Nsbs(Vnzherald
g122
tp221
g4
(g5
g6
NtRp222
(dp223
g9
F1486180650.3233271
sg10
I600
sg11
g12
((lp224
F1486298833.2823019
aF1486319313.3711441
aF1486361185.6538031
aF1486370478.2283831
aI600
tRp225
sg15
I144
sg16
g12
((lp226
I3
aI1
aI2
aI1
aI600
tRp227
sg19
I0
sg20
I600
sg21
Nsbs(Vaucklandcouncil
g22
tp228
g4
(g5
g6
NtRp229
(dp230
g9
F1486180802.85624
sg10
I600
sg11
g12
((lp231
F1486317603.141139
aF1486336165.53198
aI600
tRp232
sg15
I144
sg16
g12
((lp233
I2
aI2
aI600
tRp234
sg19
I0
sg20
I600
sg21
Nsbs(Vchinaqw
g22
tp235
g4
(g5
g6
NtRp236
(dp237
g9
F1486180596.7614541
sg10
I600
sg11
g12
((lp238
F1486317601.629782
aF1486336164.622699
aF1486375214.438098
aF1486375859.962482
aF1486376242.639231
aI600
tRp239
sg15
I144
sg16
g12
((lp240
I1
aI1
aI1
aI2
aI1
aI600
tRp241
sg19
I0
sg20
I600
sg21
Nsbs(Vchinesenzherald
g22
tp242
g4
(g5
g6
NtRp243
(dp244
g9
F1486180803.4387491
sg10
I600
sg11
g12
((lp245
F1486317730.917644
aF1486336165.952867
aF1486336424.9971049
aF1486336813.166784
aF1486337201.746244
aF1486338763.6775031
aF1486375478.0933721
aF1486375732.718163
aI600
tRp246
sg15
I144
sg16
g12
((lp247
I7
aI6
aI2
aI2
aI3
aI1
aI2
aI1
aI600
tRp248
sg19
I0
sg20
I600
sg21
Nsbs(Vsouthcn
g2
tp249
g4
(g5
g6
NtRp250
(dp251
g9
F1486180800.2151029
sg10
I600
sg11
g12
((lp252
F1486317600.139333
aF1486336163.478137
aF1486359420.5845671
aF1486375208.2553589
aI600
tRp253
sg15
I144
sg16
g12
((lp254
I1
aI1
aI11
aI5
aI600
tRp255
sg19
I0
sg20
I600
sg21
Nsbs(Vfmprc
g2
tp256
g4
(g5
g6
NtRp257
(dp258
g9
F1486180800.3942671
sg10
I600
sg11
g12
((lp259
F1486317600.2562821
aF1486336163.600481
aF1486375202.382328
aI600
tRp260
sg15
I144
sg16
g12
((lp261
I1
aI1
aI1
aI600
tRp262
sg19
I0
sg20
I600
sg21
Nsbs(Vskykiwichina
g122
tp263
g4
(g5
g6
NtRp264
(dp265
g9
F1486336019.034291
sg10
F282.52314674357575
sg11
g12
((lp266
F1486336019.034291
aF1486339413.048295
aI600
tRp267
sg15
I144
sg16
g12
((lp268
I2
aI1
aI600
tRp269
sg19
I0
sg20
I600
sg21
Nsbs(Vskykiwichina
g51
tp270
g4
(g5
g6
NtRp271
(dp272
g9
F1486284998.597235
sg10
I600
sg11
g12
((lp273
F1486293830.253052
aF1486298166.608078
aF1486298444.1334469
aF1486298833.0792911
aF1486301454.109617
aF1486303861.744446
aF1486308009.717694
aF1486308468.912112
aF1486311750.9614589
aF1486312054.9037881
aF1486315354.9136391
aF1486332624.4340839
aF1486334121.817502
aF1486339935.3220301
aI600
tRp274
sg15
I144
sg16
g12
((lp275
I1
aI3
aI7
aI8
aI1
aI1
aI1
aI1
aI1
aI2
aI1
aI1
aI1
aI1
aI600
tRp276
sg19
I0
sg20
I600
sg21
Nsbs(Vgold678
g22
tp277
g4
(g5
g6
NtRp278
(dp279
g9
F1486180804.3761439
sg10
I600
sg11
g12
((lp280
F1486317603.3477099
aF1486336165.9328451
aF1486375221.6047201
aF1486376370.7424829
aI600
tRp281
sg15
I144
sg16
g12
((lp282
I1
aI1
aI1
aI1
aI600
tRp283
sg19
I1
sg20
I600
sg21
F1486376628.8055849
sbs(Vfmprc
g22
tp284
g4
(g5
g6
NtRp285
(dp286
g9
F1486181124.183126
sg10
I600
sg11
g12
((lp287
F1486317731.2350039
aF1486339412.641607
aF1486375222.4233689
aI600
tRp288
sg15
I144
sg16
g12
((lp289
I1
aI1
aI1
aI600
tRp290
sg19
I0
sg20
I600
sg21
Nsbs(Vchinesenzherald
g2
tp291
g4
(g5
g6
NtRp292
(dp293
g9
F1486180800.1407509
sg10
I600
sg11
g12
((lp294
F1486317600.136059
aF1486336163.419946
aF1486375201.4541409
aF1486375477.8846121
aI600
tRp295
sg15
I144
sg16
g12
((lp296
I7
aI14
aI6
aI5
aI600
tRp297
sg19
I0
sg20
I600
sg21
Nsbs(Vskykiwichina
g22
tp298
g4
(g5
g6
NtRp299
(dp300
g9
F1486284992.1547749
sg10
I600
sg11
g12
((lp301
F1486290349.585402
aF1486290692.3059609
aF1486290846.5306151
aF1486290995.756393
aF1486291141.1859629
aF1486291871.6816521
aF1486292166.429847
aF1486292317.9832871
aF1486292595.6215789
aF1486292869.7343199
aF1486293356.756659
aF1486293679.6000431
aF1486293830.2483289
aF1486294103.341136
aF1486294247.7648489
aF1486294522.165257
aF1486294673.7198651
aF1486294854.2462289
aF1486295000.5426631
aF1486295374.5163529
aF1486295562.1479061
aF1486295829.6122329
aF1486296261.6763811
aF1486296687.8383329
aF1486296978.9962721
aF1486297254.208318
aF1486297452.9993451
aF1486297718.478013
aF1486298977.854939
aF1486299455.185704
aF1486299645.74279
aF1486299861.6764829
aF1486300007.4461191
aF1486300280.9749081
aF1486300425.2392941
aF1486300594.2870619
aF1486300861.8720379
aF1486301280.2242529
aF1486301454.1041
aF1486301608.7430151
aF1486301824.793293
aF1486301977.572155
aF1486302163.2688
aF1486302587.9331591
aF1486302744.168968
aF1486303025.943239
aF1486303525.787811
aF1486303670.3673191
aF1486303861.542726
aF1486312060.2391219
aF1486317731.135035
aF1486324810.2619231
aF1486332009.578819
aF1486332157.99823
aF1486332337.007
aF1486332492.157455
aF1486332810.2887521
aF1486333003.371927
aF1486333153.585176
aF1486333313.373661
aF1486333490.063966
aF1486333792.3111689
aF1486333936.5771649
aF1486340729.390816
aF1486341391.1653409
aF1486341727.0622721
aF1486341875.279783
aF1486342031.661993
aF1486342452.828264
aF1486342597.2065611
aF1486342778.6473849
aF1486343066.899224
aF1486343239.7723031
aF1486343544.7267411
aF1486343727.466403
aF1486362979.4277811
aF1486363124.9406941
aF1486363381.0141611
aI600
tRp302
sg15
I144
sg16
g12
((lp303
I1
aI1
aI1
aI1
aI2
aI1
aI1
aI2
aI2
aI2
aI1
aI1
aI2
aI1
aI2
aI1
aI1
aI1
aI2
aI1
aI2
aI1
aI2
aI1
aI1
aI1
aI1
aI1
aI2
aI1
aI1
aI1
aI2
aI1
aI1
aI1
aI1
aI1
aI1
aI1
aI1
aI1
aI1
aI1
aI2
aI1
aI1
aI1
aI2
aI1
aI1
aI1
aI1
aI1
aI1
aI2
aI1
aI1
aI1
aI1
aI2
aI1
aI1
aI1
aI1
aI1
aI1
aI2
aI1
aI1
aI2
aI1
aI2
aI1
aI2
aI1
aI2
aI2
aI600
tRp304
sg19
I0
sg20
I600
sg21
Nsbs(Vrenmin
g2
tp305
g4
(g5
g6
NtRp306
(dp307
g9
F1486180800.52092
sg10
I600
sg11
g12
((lp308
F1486317600.499696
aF1486336163.894243
aF1486375205.3737791
aI600
tRp309
sg15
I144
sg16
g12
((lp310
I1
aI1
aI1
aI600
tRp311
sg19
I0
sg20
I600
sg21
Nsbs(Vchinaembassy
g22
tp312
g4
(g5
g6
NtRp313
(dp314
g9
F1486180819.9726319
sg10
I600
sg11
g12
((lp315
F1486336167.9543819
aI600
tRp316
sg15
I144
sg16
g12
((lp317
I1
aI600
tRp318
sg19
I0
sg20
I600
sg21
Nsbs(Vrenmin
g51
tp319
g4
(g5
g6
NtRp320
(dp321
g9
F1486317731.1499779
sg10
F409.52234374980134
sg11
g12
((lp322
F1486317731.1499779
aI600
tRp323
sg15
I144
sg16
g12
((lp324
I1
aI600
tRp325
sg19
I0
sg20
I600
sg21
Nsbs(Vchinaqw
g2
tp326
g4
(g5
g6
NtRp327
(dp328
g9
F1486180596.7652371
sg10
I600
sg11
g12
((lp329
F1486317600.2137251
aF1486336163.5870039
aF1486375200.811058
aI600
tRp330
sg15
I144
sg16
g12
((lp331
I1
aI1
aI8
aI600
tRp332
sg19
I0
sg20
I600
sg21
Nsbs.