(dp1
(Vwaijiao
S'success'
p2
tp3
ccopy_reg
_reconstructor
p4
(cpyspider.libs.counter
TotalCounter
p5
c__builtin__
object
p6
NtRp7
(dp8
S'cnt'
p9
I86
sbs(Vtoutiao
g2
tp10
g4
(g5
g6
NtRp11
(dp12
g9
I257
sbs(Vrenmin
p13
S'success'
p14
tp15
g4
(g5
g6
NtRp16
(dp17
g9
I0
sbs(g13
S'failed'
p18
tp19
g4
(g5
g6
NtRp20
(dp21
g9
I0
sbs(g13
S'pending'
p22
tp23
g4
(g5
g6
NtRp24
(dp25
g9
I0
sbs(Vjiemian
g2
tp26
g4
(g5
g6
NtRp27
(dp28
g9
I299
sbs(Vtoutiao
S'pending'
tp29
g4
(g5
g6
NtRp30
(dp31
g9
I14
sbs.