(dp1
(Vwaijiao
p2
S'success'
p3
tp4
ccopy_reg
_reconstructor
p5
(cpyspider.libs.counter
TotalCounter
p6
c__builtin__
object
p7
NtRp8
(dp9
S'cnt'
p10
I86
sbs(Vtoutiao
p11
g3
tp12
g5
(g6
g7
NtRp13
(dp14
g10
I257
sbs(Vjiemian
p15
g3
tp16
g5
(g6
g7
NtRp17
(dp18
g10
I299
sbs(Vtoutiao
S'pending'
p19
tp20
g5
(g6
g7
NtRp21
(dp22
g10
I14
sbs.