(dp1
(Vtoutiao
p2
S'retry'
p3
tp4
ccopy_reg
_reconstructor
p5
(cpyspider.libs.counter
TimebaseAverageWindowCounter
p6
c__builtin__
object
p7
NtRp8
(dp9
S'_first_data_time'
p10
F1484524813.5314381
sS'window_size'
p11
I0
sS'times'
p12
ccollections
deque
p13
((lI600
tRp14
sS'window_interval'
p15
I144
sS'values'
p16
g13
((lI600
tRp17
sS'cache_value'
p18
I2
sS'max_window_size'
p19
I600
sS'cache_start'
p20
F1484524813.5314381
sbs(Vnbr
g3
tp21
g5
(g6
g7
NtRp22
(dp23
g10
F1484150475.4094169
sg11
I600
sg12
g13
((lp24
F1484398886.807256
aI600
tRp25
sg15
I144
sg16
g13
((lp26
I1
aI600
tRp27
sg18
I0
sg19
I600
sg20
Nsbs(S'chinaconsulate'
S'pending'
p28
tp29
g5
(g6
g7
NtRp30
(dp31
g10
F1484144984.868099
sg11
I600
sg12
g13
((lp32
F1484438400.1810341
aI600
tRp33
sg15
I144
sg16
g13
((lp34
I3
aI600
tRp35
sg18
I0
sg19
I600
sg20
Nsbs(Vchinanews
S'success'
p36
tp37
g5
(g6
g7
NtRp38
(dp39
g10
F1484145984.997592
sg11
I600
sg12
g13
((lp40
F1484438401.3348999
aI600
tRp41
sg15
I144
sg16
g13
((lp42
I3
aI600
tRp43
sg18
I1
sg19
I600
sg20
F1484524803.9204581
sbs(Vskykiwichina
p44
g28
tp45
g5
(g6
g7
NtRp46
(dp47
g10
F1484524800.8998921
sg11
I0
sg12
g13
((lI600
tRp48
sg15
I144
sg16
g13
((lI600
tRp49
sg18
I45
sg19
I600
sg20
F1484524800.8998921
sbs(S'nbr'
g28
tp50
g5
(g6
g7
NtRp51
(dp52
g10
F1484150421.5329599
sg11
I600
sg12
g13
((lp53
F1484481600.1503651
aI600
tRp54
sg15
I144
sg16
g13
((lp55
I6
aI600
tRp56
sg18
I0
sg19
I600
sg20
Nsbs(Vjiemian
g36
tp57
g5
(g6
g7
NtRp58
(dp59
g10
F1484148482.1017859
sg11
I600
sg12
g13
((lp60
F1484438407.4847579
aF1484524802.497261
aI600
tRp61
sg15
I144
sg16
g13
((lp62
I50
aI10
aI600
tRp63
sg18
I6
sg19
I600
sg20
F1484525925.7063019
sbs(S'chinanews'
g28
tp64
g5
(g6
g7
NtRp65
(dp66
g10
F1484145984.7001619
sg11
I600
sg12
g13
((lp67
F1484438400.4107959
aI600
tRp68
sg15
I144
sg16
g13
((lp69
I3
aI600
tRp70
sg18
I1
sg19
I600
sg20
F1484524800.6408861
sbs(Vrenmin
p71
S'failed'
p72
tp73
g5
(g6
g7
NtRp74
(dp75
g10
F1484208456.2414019
sg11
I600
sg12
g13
((lp76
F1484463690.0154071
aI600
tRp77
sg15
I144
sg16
g13
((lp78
I1
aI600
tRp79
sg18
I0
sg19
I600
sg20
Nsbs(S'etnet'
g28
tp80
g5
(g6
g7
NtRp81
(dp82
g10
F1484147121.6760459
sg11
I600
sg12
g13
((lp83
F1484438400.4441509
aF1484481600.2033081
aI600
tRp84
sg15
I144
sg16
g13
((lp85
I8
aI1
aI600
tRp86
sg18
I8
sg19
I600
sg20
F1484524800.895869
sbs(S'jiemian'
g28
tp87
g5
(g6
g7
NtRp88
(dp89
g10
F1484148468.7361159
sg11
I600
sg12
g13
((lp90
F1484438400.1367409
aI600
tRp91
sg15
I144
sg16
g13
((lp92
I50
aI600
tRp93
sg18
I50
sg19
I600
sg20
F1484524800.185333
sbs(Vetnet
p94
g36
tp95
g5
(g6
g7
NtRp96
(dp97
g10
F1484147170.326442
sg11
I600
sg12
g13
((lp98
F1484438401.839659
aF1484481602.3756189
aI600
tRp99
sg15
I144
sg16
g13
((lp100
I2
aI1
aI600
tRp101
sg18
I1
sg19
I600
sg20
F1484524803.3052599
sbs(S'aucklandcouncil'
g28
tp102
g5
(g6
g7
NtRp103
(dp104
g10
F1484144792.185127
sg11
I600
sg12
g13
((lp105
F1484438400.2128451
aI600
tRp106
sg15
I144
sg16
g13
((lp107
I8
aI600
tRp108
sg18
I8
sg19
I600
sg20
F1484524800.3318679
sbs(Vjrj
p109
g36
tp110
g5
(g6
g7
NtRp111
(dp112
g10
F1484149228.9974949
sg11
I600
sg12
g13
((lp113
F1484438402.0421021
aF1484481602.5623541
aF1484524803.610034
aI600
tRp114
sg15
I144
sg16
g13
((lp115
I47
aI47
aI9
aI600
tRp116
sg18
I6
sg19
I600
sg20
F1484525925.384587
sbs(S'chinesenzherald'
g28
tp117
g5
(g6
g7
NtRp118
(dp119
g10
F1484146822.4714921
sg11
I600
sg12
g13
((lp120
F1484438400.1261649
aF1484524800.213392
aI600
tRp121
sg15
I144
sg16
g13
((lp122
I23
aI30
aI600
tRp123
sg18
I7
sg19
I600
sg20
F1484525947.839643
sbs(Vskykiwichina
p124
g36
tp125
g5
(g6
g7
NtRp126
(dp127
g10
F1484524813.100301
sg11
I0
sg12
g13
((lp128
F1484524813.100301
aI600
tRp129
sg15
I144
sg16
g13
((lp130
I3
aI600
tRp131
sg18
I3
sg19
I600
sg20
F1484525924.3781469
sbs(Vnbr
p132
g36
tp133
g5
(g6
g7
NtRp134
(dp135
g10
F1484150421.827909
sg11
I600
sg12
g13
((lp136
F1484481636.58148
aI600
tRp137
sg15
I144
sg16
g13
((lp138
I6
aI600
tRp139
sg18
I0
sg19
I600
sg20
Nsbs(S'kannz'
g28
tp140
g5
(g6
g7
NtRp141
(dp142
g10
F1484150416.3973191
sg11
I600
sg12
g13
((lp143
F1484438400.16801
aI600
tRp144
sg15
I144
sg16
g13
((lp145
I11
aI600
tRp146
sg18
I11
sg19
I600
sg20
F1484524800.1990499
sbs(Vtoutiao
p147
g28
tp148
g5
(g6
g7
NtRp149
(dp150
g10
F1484524800.8888719
sg11
I0
sg12
g13
((lI600
tRp151
sg15
I144
sg16
g13
((lI600
tRp152
sg18
I2
sg19
I600
sg20
F1484524800.8888719
sbs(Vchinesenzherald
p153
g3
tp154
g5
(g6
g7
NtRp155
(dp156
g10
F1484524813.5699091
sg11
I0
sg12
g13
((lI600
tRp157
sg15
I144
sg16
g13
((lI600
tRp158
sg18
I2
sg19
I600
sg20
F1484524813.5699091
sbs(S'gold678'
g28
tp159
g5
(g6
g7
NtRp160
(dp161
g10
F1484148018.2330511
sg11
I600
sg12
g13
((lp162
F1484438400.3970871
aF1484481600.2098429
aI600
tRp163
sg15
I144
sg16
g13
((lp164
I1
aI1
aI600
tRp165
sg18
I1
sg19
I600
sg20
F1484524800.6274559
sbs(Vkannz
g36
tp166
g5
(g6
g7
NtRp167
(dp168
g10
F1484150416.59958
sg11
I600
sg12
g13
((lp169
F1484438402.6449039
aF1484524802.90185
aI600
tRp170
sg15
I144
sg16
g13
((lp171
I11
aI10
aI600
tRp172
sg18
I1
sg19
I600
sg20
F1484525925.6960621
sbs(Vjrj
g3
tp173
g5
(g6
g7
NtRp174
(dp175
g10
F1484149899.6383481
sg11
I600
sg12
g13
((lp176
F1484398877.4467299
aF1484438436.0745831
aF1484442082.268435
aI600
tRp177
sg15
I144
sg16
g13
((lp178
I1
aI8
aI4
aI600
tRp179
sg18
I0
sg19
I600
sg20
Nsbs(Vchinaconsulate
p180
g36
tp181
g5
(g6
g7
NtRp182
(dp183
g10
F1484145362.1177211
sg11
I600
sg12
g13
((lp184
F1484438432.4939699
aI600
tRp185
sg15
I144
sg16
g13
((lp186
I3
aI600
tRp187
sg18
I0
sg19
I600
sg20
Nsbs(Vsouthcn
p188
g36
tp189
g5
(g6
g7
NtRp190
(dp191
g10
F1484183637.5244069
sg11
I600
sg12
g13
((lp192
F1484438401.6545129
aI600
tRp193
sg15
I144
sg16
g13
((lp194
I13
aI600
tRp195
sg18
I0
sg19
I600
sg20
Nsbs(Vrenmin
p196
g36
tp197
g5
(g6
g7
NtRp198
(dp199
g10
F1484182299.0745151
sg11
I600
sg12
g13
((lp200
F1484438402.48856
aI600
tRp201
sg15
I144
sg16
g13
((lp202
I3
aI600
tRp203
sg18
I1
sg19
I600
sg20
F1484524802.707217
sbs(S'jrj'
g28
tp204
g5
(g6
g7
NtRp205
(dp206
g10
F1484148790.2753639
sg11
I600
sg12
g13
((lp207
F1484438400.202687
aF1484481600.2191451
aI600
tRp208
sg15
I144
sg16
g13
((lp209
I51
aI47
aI600
tRp210
sg18
I39
sg19
I600
sg20
F1484524800.5195761
sbs(Vnbr
p211
g72
tp212
g5
(g6
g7
NtRp213
(dp214
g10
F1484175737.760211
sg11
I600
sg12
g13
((lp215
F1484420491.9931481
aI600
tRp216
sg15
I144
sg16
g13
((lp217
I1
aI600
tRp218
sg18
I0
sg19
I600
sg20
Nsbs(Vaucklandcouncil
g36
tp219
g5
(g6
g7
NtRp220
(dp221
g10
F1484144792.5874121
sg11
I600
sg12
g13
((lp222
F1484438429.0310061
aF1484524803.5070269
aI600
tRp223
sg15
I144
sg16
g13
((lp224
I8
aI7
aI600
tRp225
sg18
I1
sg19
I600
sg20
F1484525925.7024829
sbs(Vchinaqw
g36
tp226
g5
(g6
g7
NtRp227
(dp228
g10
F1484146336.6927381
sg11
I600
sg12
g13
((lp229
F1484438402.4557929
aF1484481601.1523681
aI600
tRp230
sg15
I144
sg16
g13
((lp231
I1
aI1
aI600
tRp232
sg18
I1
sg19
I600
sg20
F1484524801.6931219
sbs(Vchinesenzherald
p233
g36
tp234
g5
(g6
g7
NtRp235
(dp236
g10
F1484146822.7393241
sg11
I600
sg12
g13
((lp237
F1484438429.036279
aF1484524804.5127461
aI600
tRp238
sg15
I144
sg16
g13
((lp239
I23
aI12
aI600
tRp240
sg18
I12
sg19
I600
sg20
F1484525925.496326
sbs(Vetnet
g3
tp241
g5
(g6
g7
NtRp242
(dp243
g10
F1484147173.327445
sg11
I600
sg12
g13
((lp244
F1484398836.8032169
aF1484438430.9305141
aF1484442075.526799
aF1484524813.490613
aI600
tRp245
sg15
I144
sg16
g13
((lp246
I1
aI12
aI6
aI6
aI600
tRp247
sg18
I1
sg19
I600
sg20
F1484525925.7350099
sbs(Vchinaconsulate
p248
g3
tp249
g5
(g6
g7
NtRp250
(dp251
g10
F1484145516.6269829
sg11
I600
sg12
g13
((lp252
F1484438459.7123649
aI600
tRp253
sg15
I144
sg16
g13
((lp254
I1
aI600
tRp255
sg18
I0
sg19
I600
sg20
Nsbs(S'fmprc'
g28
tp256
g5
(g6
g7
NtRp257
(dp258
g10
F1484147416.615356
sg11
I600
sg12
g13
((lp259
F1484438400.3103671
aF1484481600.1541021
aI600
tRp260
sg15
I144
sg16
g13
((lp261
I1
aI1
aI600
tRp262
sg18
I1
sg19
I600
sg20
F1484524800.3382909
sbs(Vetnet
p263
g72
tp264
g5
(g6
g7
NtRp265
(dp266
g10
F1484172449.738565
sg11
I600
sg12
g13
((lp267
F1484420438.05042
aF1484463677.8372581
aI600
tRp268
sg15
I144
sg16
g13
((lp269
I1
aI6
aI600
tRp270
sg18
I0
sg19
I600
sg20
Nsbs(Vjrj
p271
g72
tp272
g5
(g6
g7
NtRp273
(dp274
g10
F1484175142.0137689
sg11
I600
sg12
g13
((lp275
F1484420479.2099509
aF1484463684.5802009
aI600
tRp276
sg15
I144
sg16
g13
((lp277
I1
aI4
aI600
tRp278
sg18
I0
sg19
I600
sg20
Nsbs(S'weibo'
g28
tp279
g5
(g6
g7
NtRp280
(dp281
g10
F1484184891.7518871
sg11
I600
sg12
g13
((lp282
F1484398800.160836
aF1484406000.1982181
aF1484413200.138041
aF1484420400.1997869
aF1484427600.130506
aF1484434800.1240101
aF1484442000.2415321
aF1484449200.1859319
aF1484456400.1203029
aF1484463600.1401801
aF1484470800.1440091
aF1484478000.1338019
aF1484485200.1617141
aF1484492400.117285
aF1484499600.1246221
aF1484506800.1239581
aF1484514000.1356249
aI600
tRp283
sg15
I144
sg16
g13
((lp284
I11
aI10
aI10
aI10
aI10
aI10
aI10
aI10
aI10
aI10
aI10
aI10
aI10
aI10
aI10
aI10
aI10
aI600
tRp285
sg18
I10
sg19
I600
sg20
F1484521200.1429501
sbs(Vgold678
p286
g36
tp287
g5
(g6
g7
NtRp288
(dp289
g10
F1484148018.5269411
sg11
I600
sg12
g13
((lp290
F1484438402.4853351
aF1484481602.379072
aI600
tRp291
sg15
I144
sg16
g13
((lp292
I1
aI1
aI600
tRp293
sg18
I1
sg19
I600
sg20
F1484524802.9048009
sbs(Vfmprc
p294
g36
tp295
g5
(g6
g7
NtRp296
(dp297
g10
F1484147416.918535
sg11
I600
sg12
g13
((lp298
F1484438430.9431491
aF1484481608.908036
aI600
tRp299
sg15
I144
sg16
g13
((lp300
I1
aI1
aI600
tRp301
sg18
I1
sg19
I600
sg20
F1484524814.027652
sbs(S'renmin'
g28
tp302
g5
(g6
g7
NtRp303
(dp304
g10
F1484182298.787523
sg11
I600
sg12
g13
((lp305
F1484438400.437726
aI600
tRp306
sg15
I144
sg16
g13
((lp307
I4
aI600
tRp308
sg18
I1
sg19
I600
sg20
F1484524800.904165
sbs(Vweibo
p309
g36
tp310
g5
(g6
g7
NtRp311
(dp312
g10
F1484184892.0291181
sg11
I600
sg12
g13
((lp313
F1484398801.3673489
aF1484406002.410557
aF1484413201.8502741
aF1484420401.3062329
aF1484427601.1323409
aF1484434802.0344441
aF1484442001.7490311
aF1484449202.1886339
aF1484456401.7298751
aF1484463601.3496349
aF1484470801.7556951
aF1484478001.1496589
aF1484485201.7777901
aF1484492401.4145181
aF1484499602.336751
aF1484506801.4316111
aF1484514001.745702
aI600
tRp314
sg15
I144
sg16
g13
((lp315
I11
aI10
aI10
aI10
aI10
aI10
aI10
aI10
aI10
aI10
aI10
aI10
aI10
aI10
aI10
aI10
aI10
aI600
tRp316
sg18
I10
sg19
I600
sg20
F1484521201.964927
sbs(S'southcn'
g28
tp317
g5
(g6
g7
NtRp318
(dp319
g10
F1484183637.2401149
sg11
I600
sg12
g13
((lp320
F1484438400.129905
aI600
tRp321
sg15
I144
sg16
g13
((lp322
I13
aI600
tRp323
sg18
I0
sg19
I600
sg20
Nsbs(Vrenmin
g3
tp324
g5
(g6
g7
NtRp325
(dp326
g10
F1484182309.931088
sg11
I600
sg12
g13
((lp327
F1484438432.2512469
aF1484442081.161356
aI600
tRp328
sg15
I144
sg16
g13
((lp329
I2
aI1
aI600
tRp330
sg18
I0
sg19
I600
sg20
Nsbs(S'chinaqw'
g28
tp331
g5
(g6
g7
NtRp332
(dp333
g10
F1484146336.5012889
sg11
I600
sg12
g13
((lp334
F1484438400.23946
aF1484481600.1470289
aI600
tRp335
sg15
I144
sg16
g13
((lp336
I1
aI1
aI600
tRp337
sg18
I1
sg19
I600
sg20
F1484524800.279953
sbs.