(dp1
(S'chinaconsulate'
S'pending'
p2
tp3
ccopy_reg
_reconstructor
p4
(cpyspider.libs.counter
TimebaseAverageWindowCounter
p5
c__builtin__
object
p6
NtRp7
(dp8
S'_first_data_time'
p9
F1482140936.746959
sS'window_size'
p10
F42.514301832516985
sS'times'
p11
ccollections
deque
p12
((lp13
F1482140936.746959
aI60
tRp14
sS'window_interval'
p15
I60
sS'values'
p16
g12
((lp17
I1
aI60
tRp18
sS'cache_value'
p19
I0
sS'max_window_size'
p20
I60
sS'cache_start'
p21
Nsbs(Vchinaconsulate
p22
S'success'
p23
tp24
g4
(g5
g6
NtRp25
(dp26
g9
F1482140937.339761
sg10
F42.504421683152515
sg11
g12
((lp27
F1482140937.339761
aI60
tRp28
sg15
I60
sg16
g12
((lp29
I1
aI60
tRp30
sg19
I0
sg20
I60
sg21
Nsbs(Vjiemian
p31
S'retry'
p32
tp33
g4
(g5
g6
NtRp34
(dp35
g9
F1482138385.350338
sg10
I60
sg11
g12
((lp36
F1482142037.6533451
aF1482142513.390146
aF1482142669.6501181
aI60
tRp37
sg15
I60
sg16
g12
((lp38
I1
aI1
aI5
aI60
tRp39
sg19
I0
sg20
I60
sg21
Nsbs(Vchinaembassy
p40
g32
tp41
g4
(g5
g6
NtRp42
(dp43
g9
F1482136482.4230609
sg10
I60
sg11
g12
((lp44
F1482140138.171113
aI60
tRp45
sg15
I60
sg16
g12
((lp46
I3
aI60
tRp47
sg19
I0
sg20
I60
sg21
Nsbs(Vweibo
p48
g23
tp49
g4
(g5
g6
NtRp50
(dp51
g9
F1482142179.046731
sg10
F21.80930186510086
sg11
g12
((lp52
F1482142179.046731
aF1482142293.4701369
aF1482142459.6152401
aF1482143035.567832
aF1482143100.5297999
aI60
tRp53
sg15
I60
sg16
g12
((lp54
I8
aI12
aI9
aI21
aI12
aI60
tRp55
sg19
I0
sg20
I60
sg21
Nsbs(Vchinesenzherald
p56
g23
tp57
g4
(g5
g6
NtRp58
(dp59
g9
F1482137013.0618191
sg10
I60
sg11
g12
((lp60
F1482140936.2293849
aI60
tRp61
sg15
I60
sg16
g12
((lp62
I1
aI60
tRp63
sg19
I0
sg20
I60
sg21
Nsbs(Vfmprc
p64
g32
tp65
g4
(g5
g6
NtRp66
(dp67
g9
F1482137313.8022089
sg10
I60
sg11
g12
((lp68
F1482141007.0563869
aF1482141092.017621
aI60
tRp69
sg15
I60
sg16
g12
((lp70
I3
aI1
aI60
tRp71
sg19
I0
sg20
I60
sg21
Nsbs(S'chinaembassy'
g2
tp72
g4
(g5
g6
NtRp73
(dp74
g9
F1482140936.363203
sg10
F42.520695614814755
sg11
g12
((lp75
F1482140936.363203
aI60
tRp76
sg15
I60
sg16
g12
((lp77
I1
aI60
tRp78
sg19
I0
sg20
I60
sg21
Nsbs(S'jiemian'
p79
g2
tp80
g4
(g5
g6
NtRp81
(dp82
g9
F1482138338.9328561
sg10
I60
sg11
g12
((lp83
F1482140934.576159
aI60
tRp84
sg15
I60
sg16
g12
((lp85
I1
aI60
tRp86
sg19
I0
sg20
I60
sg21
Nsbs(S'chinesenzherald'
p87
g2
tp88
g4
(g5
g6
NtRp89
(dp90
g9
F1482137012.644763
sg10
I60
sg11
g12
((lp91
F1482140935.67858
aI60
tRp92
sg15
I60
sg16
g12
((lp93
I1
aI60
tRp94
sg19
I0
sg20
I60
sg21
Nsbs(Vskykiwichina
p95
g23
tp96
g4
(g5
g6
NtRp97
(dp98
g9
F1482141359.6750779
sg10
F35.465496651331584
sg11
g12
((lp99
F1482141359.6750779
aF1482141420.310488
aI60
tRp100
sg15
I60
sg16
g12
((lp101
I52
aI20
aI60
tRp102
sg19
I0
sg20
I60
sg21
Nsbs(Vchinaconsulate
p103
g32
tp104
g4
(g5
g6
NtRp105
(dp106
g9
F1482136350.6832631
sg10
I60
sg11
g12
((lp107
F1482140001.2453949
aI60
tRp108
sg15
I60
sg16
g12
((lp109
I1
aI60
tRp110
sg19
I0
sg20
I60
sg21
Nsbs(S'weibo'
p111
g2
tp112
g4
(g5
g6
NtRp113
(dp114
g9
F1482142178.6212909
sg10
F21.816392417748769
sg11
g12
((lp115
F1482142178.6212909
aF1482142293.669229
aF1482142460.1922309
aF1482143034.7832379
aF1482143101.5469401
aI60
tRp116
sg15
I60
sg16
g12
((lp117
I31
aI70
aI5
aI10
aI3
aI60
tRp118
sg19
I0
sg20
I60
sg21
Nsbs(S'kannz'
p119
g2
tp120
g4
(g5
g6
NtRp121
(dp122
g9
F1482139438.2760999
sg10
I60
sg11
g12
((lp123
F1482140934.000313
aI60
tRp124
sg15
I60
sg16
g12
((lp125
I1
aI60
tRp126
sg19
I0
sg20
I60
sg21
Nsbs(Vchinesenzherald
p127
g32
tp128
g4
(g5
g6
NtRp129
(dp130
g9
F1482137027.5166979
sg10
I60
sg11
g12
((lp131
F1482140680.1866701
aI60
tRp132
sg15
I60
sg16
g12
((lp133
I1
aI60
tRp134
sg19
I0
sg20
I60
sg21
Nsbs(Vweibo
p135
g32
tp136
g4
(g5
g6
NtRp137
(dp138
g9
F1482142187.2498391
sg10
F21.672583130995431
sg11
g12
((lp139
F1482142187.2498391
aF1482142293.1591949
aF1482142357.0951071
aF1482142459.171808
aF1482143032.196573
aF1482143092.396014
aF1482143153.6205289
aI60
tRp140
sg15
I60
sg16
g12
((lp141
I4
aI8
aI2
aI14
aI41
aI48
aI2
aI60
tRp142
sg19
I0
sg20
I60
sg21
Nsbs(Vkannz
p143
g23
tp144
g4
(g5
g6
NtRp145
(dp146
g9
F1482139438.6853981
sg10
I60
sg11
g12
((lp147
F1482140934.4339919
aI60
tRp148
sg15
I60
sg16
g12
((lp149
I1
aI60
tRp150
sg19
I0
sg20
I60
sg21
Nsbs(Vskykiwichina
p151
g32
tp152
g4
(g5
g6
NtRp153
(dp154
g9
F1482141437.691272
sg10
F34.16522653102875
sg11
g12
((lp155
F1482141437.691272
aI60
tRp156
sg15
I60
sg16
g12
((lp157
I2
aI60
tRp158
sg19
I0
sg20
I60
sg21
Nsbs(Vrenmin
p159
g23
tp160
g4
(g5
g6
NtRp161
(dp162
g9
F1482140364.7097621
sg10
F52.048255650202435
sg11
g12
((lp163
F1482140364.7097621
aF1482140789.223727
aF1482140933.8414719
aF1482143076.8128049
aF1482143169.1934259
aI60
tRp164
sg15
I60
sg16
g12
((lp165
I15
aI1
aI1
aI1
aI1
aI60
tRp166
sg19
I0
sg20
I60
sg21
Nsbs(Vjiemian
p167
g23
tp168
g4
(g5
g6
NtRp169
(dp170
g9
F1482138339.2999361
sg10
I60
sg11
g12
((lp171
F1482140925.702317
aI60
tRp172
sg15
I60
sg16
g12
((lp173
I6
aI60
tRp174
sg19
I0
sg20
I60
sg21
Nsbs(S'fmprc'
p175
g2
tp176
g4
(g5
g6
NtRp177
(dp178
g9
F1482137279.584162
sg10
I60
sg11
g12
((lp179
F1482140934.935421
aI60
tRp180
sg15
I60
sg16
g12
((lp181
I1
aI60
tRp182
sg19
I0
sg20
I60
sg21
Nsbs(S'skykiwichina'
p183
g2
tp184
g4
(g5
g6
NtRp185
(dp186
g9
F1482141359.2413199
sg10
F35.472725852330527
sg11
g12
((lp187
F1482141359.2413199
aI60
tRp188
sg15
I60
sg16
g12
((lp189
I73
aI60
tRp190
sg19
I0
sg20
I60
sg21
Nsbs(Vfmprc
p191
g23
tp192
g4
(g5
g6
NtRp193
(dp194
g9
F1482137280.037219
sg10
I60
sg11
g12
((lp195
F1482140935.536468
aI60
tRp196
sg15
I60
sg16
g12
((lp197
I1
aI60
tRp198
sg19
I0
sg20
I60
sg21
Nsbs(Vkannz
p199
g32
tp200
g4
(g5
g6
NtRp201
(dp202
g9
F1482139506.918432
sg10
I60
sg11
g12
((lp203
F1482140936.0873561
aF1482143226.8600709
aI60
tRp204
sg15
I60
sg16
g12
((lp205
I8
aI2
aI60
tRp206
sg19
I0
sg20
I60
sg21
Nsbs(S'renmin'
p207
g2
tp208
g4
(g5
g6
NtRp209
(dp210
g9
F1482140364.3592219
sg10
F52.054097882906596
sg11
g12
((lp211
F1482140364.3592219
aF1482140788.80668
aF1482140933.4244089
aF1482143076.2864029
aF1482143168.7007971
aI60
tRp212
sg15
I60
sg16
g12
((lp213
I39
aI1
aI1
aI1
aI1
aI60
tRp214
sg19
I0
sg20
I60
sg21
Nsbs(Vchinaembassy
p215
g23
tp216
g4
(g5
g6
NtRp217
(dp218
g9
F1482140937.0476401
sg10
F42.509288215637206
sg11
g12
((lp219
F1482140937.0476401
aI60
tRp220
sg15
I60
sg16
g12
((lp221
I1
aI60
tRp222
sg19
I0
sg20
I60
sg21
Nsbs(Vrenmin
p223
g32
tp224
g4
(g5
g6
NtRp225
(dp226
g9
F1482140373.529763
sg10
F51.901255416870114
sg11
g12
((lp227
F1482140373.529763
aF1482140434.689816
aI60
tRp228
sg15
I60
sg16
g12
((lp229
I45
aI3
aI60
tRp230
sg19
I0
sg20
I60
sg21
Nsbs.