(dp1
(Vkannz
p2
S'success'
p3
tp4
ccopy_reg
_reconstructor
p5
(cpyspider.libs.counter
TimebaseAverageWindowCounter
p6
c__builtin__
object
p7
NtRp8
(dp9
S'_first_data_time'
p10
F1482485290.013494
sS'window_size'
p11
I0
sS'times'
p12
ccollections
deque
p13
((lI60
tRp14
sS'window_interval'
p15
I60
sS'values'
p16
g13
((lI60
tRp17
sS'cache_value'
p18
I1
sS'max_window_size'
p19
I60
sS'cache_start'
p20
F1482485290.013494
sbs.