(dp1
(Vchinanews
p2
S'pending'
p3
tp4
ccopy_reg
_reconstructor
p5
(cpyspider.libs.counter
TimebaseAverageWindowCounter
p6
c__builtin__
object
p7
NtRp8
(dp9
S'_first_data_time'
p10
F1486375204.1869149
sS'window_size'
p11
F24.969646950562794
sS'times'
p12
ccollections
deque
p13
((lp14
F1486375204.1869149
aI60
tRp15
sS'window_interval'
p16
I60
sS'values'
p17
g13
((lp18
I8
aI60
tRp19
sS'cache_value'
p20
I0
sS'max_window_size'
p21
I60
sS'cache_start'
p22
Nsbs(Vchinanews
p23
S'success'
p24
tp25
g5
(g6
g7
NtRp26
(dp27
g10
F1486375215.950377
sg11
F24.773589166005454
sg12
g13
((lp28
F1486375215.950377
aF1486375605.084831
aF1486376115.1425719
aI60
tRp29
sg16
I60
sg17
g13
((lp30
I1
aI1
aI1
aI60
tRp31
sg20
I0
sg21
I60
sg22
Nsbs(Vstockstar
g3
tp32
g5
(g6
g7
NtRp33
(dp34
g10
F1486375208.4223411
sg11
F24.899052329858144
sg12
g13
((lp35
F1486375208.4223411
aI60
tRp36
sg16
I60
sg17
g13
((lp37
I1
aI60
tRp38
sg20
I0
sg21
I60
sg22
Nsbs(Vchinesenzherald
p39
g24
tp40
g5
(g6
g7
NtRp41
(dp42
g10
F1486375478.093369
sg11
F20.404536100228629
sg12
g13
((lp43
F1486375478.093369
aF1486375605.502336
aF1486375732.7181561
aI60
tRp44
sg16
I60
sg17
g13
((lp45
I1
aI1
aI1
aI60
tRp46
sg20
I0
sg21
I60
sg22
Nsbs(Vchinaconsulate
g3
tp47
g5
(g6
g7
NtRp48
(dp49
g10
F1486375208.5812581
sg11
F24.896407282352449
sg12
g13
((lp50
F1486375208.5812581
aI60
tRp51
sg16
I60
sg17
g13
((lp52
I1
aI60
tRp53
sg20
I0
sg21
I60
sg22
Nsbs(Vgovt
p54
g3
tp55
g5
(g6
g7
NtRp56
(dp57
g10
F1486375200.3342609
sg11
F25.033857500553133
sg12
g13
((lp58
F1486375200.3342609
aI60
tRp59
sg16
I60
sg17
g13
((lp60
I39
aI60
tRp61
sg20
I0
sg21
I60
sg22
Nsbs(Vsouthcn
p62
g24
tp63
g5
(g6
g7
NtRp64
(dp65
g10
F1486375216.6103361
sg11
F24.762590964635212
sg12
g13
((lp66
F1486375216.6103361
aF1486375350.0140841
aF1486375477.709125
aF1486375732.5010791
aF1486376498.601825
aI60
tRp67
sg16
I60
sg17
g13
((lp68
I1
aI1
aI1
aI1
aI1
aI60
tRp69
sg20
I0
sg21
I60
sg22
Nsbs(Vetnet
g3
tp70
g5
(g6
g7
NtRp71
(dp72
g10
F1486375207.5034871
sg11
F24.914371097087859
sg12
g13
((lp73
F1486375207.5034871
aI60
tRp74
sg16
I60
sg17
g13
((lp75
I1
aI60
tRp76
sg20
I0
sg21
I60
sg22
Nsbs(Vnzherald
g3
tp77
g5
(g6
g7
NtRp78
(dp79
g10
F1486375200.5013361
sg11
F25.031071333090463
sg12
g13
((lp80
F1486375200.5013361
aI60
tRp81
sg16
I60
sg17
g13
((lp82
I4
aI60
tRp83
sg20
I0
sg21
I60
sg22
Nsbs(Vetnet
p84
g24
tp85
g5
(g6
g7
NtRp86
(dp87
g10
F1486375221.061749
sg11
F24.688399966557821
sg12
g13
((lp88
F1486375221.061749
aI60
tRp89
sg16
I60
sg17
g13
((lp90
I1
aI60
tRp91
sg20
I0
sg21
I60
sg22
Nsbs(Vaucklandcouncil
p92
g3
tp93
g5
(g6
g7
NtRp94
(dp95
g10
F1486375208.0798061
sg11
F24.904764099915823
sg12
g13
((lp96
F1486375208.0798061
aI60
tRp97
sg16
I60
sg17
g13
((lp98
I2
aI60
tRp99
sg20
I0
sg21
I60
sg22
Nsbs(Vjrj
p100
g24
tp101
g5
(g6
g7
NtRp102
(dp103
g10
F1486375221.2453711
sg11
F24.685337150096892
sg12
g13
((lp104
F1486375221.2453711
aI60
tRp105
sg16
I60
sg17
g13
((lp106
I1
aI60
tRp107
sg20
I0
sg21
I60
sg22
Nsbs(Vjiemian
p108
g3
tp109
g5
(g6
g7
NtRp110
(dp111
g10
F1486375200.6518199
sg11
F25.028563618659973
sg12
g13
((lp112
F1486375200.6518199
aI60
tRp113
sg16
I60
sg17
g13
((lp114
I9
aI60
tRp115
sg20
I0
sg21
I60
sg22
Nsbs(Vstockstar
p116
g24
tp117
g5
(g6
g7
NtRp118
(dp119
g10
F1486375219.649328
sg11
F24.711935766537984
sg12
g13
((lp120
F1486375219.649328
aI60
tRp121
sg16
I60
sg17
g13
((lp122
I1
aI60
tRp123
sg20
I0
sg21
I60
sg22
Nsbs(Vjrj
p124
g3
tp125
g5
(g6
g7
NtRp126
(dp127
g10
F1486375203.1508119
sg11
F24.986913033326466
sg12
g13
((lp128
F1486375203.1508119
aI60
tRp129
sg16
I60
sg17
g13
((lp130
I8
aI60
tRp131
sg20
I0
sg21
I60
sg22
Nsbs(Vkannz
p132
g3
tp133
g5
(g6
g7
NtRp134
(dp135
g10
F1486375202.8920341
sg11
F24.991224531332652
sg12
g13
((lp136
F1486375202.8920341
aI60
tRp137
sg16
I60
sg17
g13
((lp138
I3
aI60
tRp139
sg20
I0
sg21
I60
sg22
Nsbs(Vchinesenzherald
p140
S'retry'
p141
tp142
g5
(g6
g7
NtRp143
(dp144
g10
F1486375987.742964
sg11
F11.910376000404359
sg12
g13
((lp145
F1486375987.742964
aI60
tRp146
sg16
I60
sg17
g13
((lp147
I1
aI60
tRp148
sg20
I0
sg21
I60
sg22
Nsbs(Vgold678
p149
g3
tp150
g5
(g6
g7
NtRp151
(dp152
g10
F1486375203.4683659
sg11
F24.981620200475056
sg12
g13
((lp153
F1486375203.4683659
aI60
tRp154
sg16
I60
sg17
g13
((lp155
I8
aI60
tRp156
sg20
I0
sg21
I60
sg22
Nsbs(Vkannz
p157
g24
tp158
g5
(g6
g7
NtRp159
(dp160
g10
F1486375605.661006
sg11
F18.278408233324686
sg12
g13
((lp161
F1486375605.661006
aF1486376115.4513359
aI60
tRp162
sg16
I60
sg17
g13
((lp163
I1
aI1
aI60
tRp164
sg20
I0
sg21
I60
sg22
Nsbs(Vchinaconsulate
p165
g24
tp166
g5
(g6
g7
NtRp167
(dp168
g10
F1486375224.144031
sg11
F24.637027649084725
sg12
g13
((lp169
F1486375224.144031
aI60
tRp170
sg16
I60
sg17
g13
((lp171
I1
aI60
tRp172
sg20
I0
sg21
I60
sg22
Nsbs(Vrenmin
p173
g24
tp174
g5
(g6
g7
NtRp175
(dp176
g10
F1486375221.446012
sg11
F24.681992399692536
sg12
g13
((lp177
F1486375221.446012
aI60
tRp178
sg16
I60
sg17
g13
((lp179
I1
aI60
tRp180
sg20
I0
sg21
I60
sg22
Nsbs(Vchinaqw
p181
g24
tp182
g5
(g6
g7
NtRp183
(dp184
g10
F1486375214.4380951
sg11
F24.798792982101439
sg12
g13
((lp185
F1486375214.4380951
aF1486375859.9624791
aF1486375987.5008111
aF1486376242.6392231
aI60
tRp186
sg16
I60
sg17
g13
((lp187
I1
aI1
aI1
aI1
aI60
tRp188
sg20
I0
sg21
I60
sg22
Nsbs(Vjiemian
p189
g24
tp190
g5
(g6
g7
NtRp191
(dp192
g10
F1486375219.4822321
sg11
F24.714723332722983
sg12
g13
((lp193
F1486375219.4822321
aF1486375605.2601709
aF1486376242.806587
aI60
tRp194
sg16
I60
sg17
g13
((lp195
I3
aI1
aI1
aI60
tRp196
sg20
I0
sg21
I60
sg22
Nsbs(Vfmprc
g3
tp197
g5
(g6
g7
NtRp198
(dp199
g10
F1486375202.382324
sg11
F24.999724149703979
sg12
g13
((lp200
F1486375202.382324
aI60
tRp201
sg16
I60
sg17
g13
((lp202
I1
aI60
tRp203
sg20
I0
sg21
I60
sg22
Nsbs(Vgold678
p204
g24
tp205
g5
(g6
g7
NtRp206
(dp207
g10
F1486375221.604717
sg11
F24.679347598552702
sg12
g13
((lp208
F1486375221.604717
aF1486376370.7424791
aF1486376628.805578
aI60
tRp209
sg16
I60
sg17
g13
((lp210
I1
aI1
aI1
aI60
tRp211
sg20
I0
sg21
I60
sg22
Nsbs(Vfmprc
p212
g24
tp213
g5
(g6
g7
NtRp214
(dp215
g10
F1486375222.4233661
sg11
F24.665706698099772
sg12
g13
((lp216
F1486375222.4233661
aI60
tRp217
sg16
I60
sg17
g13
((lp218
I1
aI60
tRp219
sg20
I0
sg21
I60
sg22
Nsbs(Vchinesenzherald
p220
g3
tp221
g5
(g6
g7
NtRp222
(dp223
g10
F1486375201.454138
sg11
F25.015189850330351
sg12
g13
((lp224
F1486375201.454138
aF1486375477.884608
aI60
tRp225
sg16
I60
sg17
g13
((lp226
I6
aI5
aI60
tRp227
sg20
I0
sg21
I60
sg22
Nsbs(Vrenmin
g3
tp228
g5
(g6
g7
NtRp229
(dp230
g10
F1486375205.373775
sg11
F24.949862933158876
sg12
g13
((lp231
F1486375205.373775
aI60
tRp232
sg16
I60
sg17
g13
((lp233
I1
aI60
tRp234
sg20
I0
sg21
I60
sg22
Nsbs(Vsouthcn
g3
tp235
g5
(g6
g7
NtRp236
(dp237
g10
F1486375208.2553549
sg11
F24.901840567588806
sg12
g13
((lp238
F1486375208.2553549
aI60
tRp239
sg16
I60
sg17
g13
((lp240
I5
aI60
tRp241
sg20
I0
sg21
I60
sg22
Nsbs(Vchinaqw
p242
g3
tp243
g5
(g6
g7
NtRp244
(dp245
g10
F1486375200.8110509
sg11
F25.025910286108651
sg12
g13
((lp246
F1486375200.8110509
aI60
tRp247
sg16
I60
sg17
g13
((lp248
I8
aI60
tRp249
sg20
I0
sg21
I60
sg22
Nsbs.