(dp1
(Vtest
p2
S'failed'
p3
tp4
ccopy_reg
_reconstructor
p5
(cpyspider.libs.counter
TimebaseAverageWindowCounter
p6
c__builtin__
object
p7
NtRp8
(dp9
S'_first_data_time'
p10
F1484823242.117131
sS'window_size'
p11
I60
sS'times'
p12
ccollections
deque
p13
((lp14
F1484872741.883908
aF1484872922.0987
aF1484873101.7141571
aF1484873281.9971709
aF1484873461.795305
aF1484873642.3355
aF1484873821.975342
aF1484874002.2772689
aF1484874181.943897
aF1484874242.1757121
aF1484874361.826926
aF1484874542.0065839
aF1484874721.8601511
aF1484874901.818799
aF1484875081.9127431
aF1484875261.7790921
aF1484875441.851409
aF1484875621.7266531
aF1484875802.050611
aF1484875982.420862
aF1484876162.6824269
aI60
tRp15
sS'window_interval'
p16
I60
sS'values'
p17
g13
((lp18
I1
aI1
aI1
aI1
aI1
aI1
aI1
aI1
aI1
aI1
aI1
aI1
aI1
aI1
aI1
aI1
aI1
aI1
aI1
aI1
aI1
aI60
tRp19
sS'cache_value'
p20
I1
sS'max_window_size'
p21
I60
sS'cache_start'
p22
F1484876341.723907
sbs(S'test'
S'pending'
tp23
g5
(g6
g7
NtRp24
(dp25
g10
F1484791527.8801329
sg11
I60
sg12
g13
((lp26
F1484872740.273807
aF1484872920.371954
aF1484873100.312427
aF1484873280.269577
aF1484873460.393811
aF1484873640.391664
aF1484873820.3818319
aF1484874000.532717
aF1484874180.316364
aF1484874240.3649039
aF1484874360.3335769
aF1484874540.2788291
aF1484874720.375047
aF1484874900.3250029
aF1484875080.2854099
aF1484875260.277287
aF1484875440.3827
aF1484875620.33305
aF1484875800.315027
aF1484875980.301136
aF1484876160.455477
aI60
tRp27
sg16
I60
sg17
g13
((lp28
I1
aI1
aI1
aI1
aI1
aI1
aI1
aI1
aI1
aI1
aI1
aI1
aI1
aI1
aI1
aI1
aI1
aI1
aI1
aI1
aI1
aI60
tRp29
sg20
I1
sg21
I60
sg22
F1484876340.3220611
sbs(Vtest
p30
S'retry'
p31
tp32
g5
(g6
g7
NtRp33
(dp34
g10
F1484823240.982661
sg11
I60
sg12
g13
((lp35
F1484872740.6741929
aF1484872920.8057129
aF1484873100.612854
aF1484873280.7203059
aF1484873460.7941279
aF1484873640.8587379
aF1484873820.8489101
aF1484874000.9337931
aF1484874180.7418439
aF1484874240.757422
aF1484874360.6424351
aF1484874540.730242
aF1484874720.658664
aF1484874900.6421831
aF1484875080.7025599
aF1484875260.669389
aF1484875440.699852
aF1484875620.616714
aF1484875800.7153511
aF1484875980.684859
aF1484876160.9643109
aI60
tRp36
sg16
I60
sg17
g13
((lp37
I3
aI3
aI3
aI3
aI3
aI3
aI3
aI3
aI3
aI3
aI3
aI3
aI3
aI3
aI3
aI3
aI3
aI3
aI3
aI3
aI3
aI60
tRp38
sg20
I3
sg21
I60
sg22
F1484876340.6308329
sbs.