(dp1
(Vtoutiao
S'retry'
p2
tp3
ccopy_reg
_reconstructor
p4
(cpyspider.libs.counter
TimebaseAverageWindowCounter
p5
c__builtin__
object
p6
NtRp7
(dp8
S'_first_data_time'
p9
F1481796434.4740591
sS'window_size'
p10
F131.20522356861167
sS'times'
p11
ccollections
deque
p12
((lp13
F1481796434.4740591
aF1481798794.2989459
aF1481799255.820394
aF1481799404.0735011
aF1481799548.8459589
aF1481800035.5528319
aF1481800216.3483031
aF1481800399.2891369
aF1481800778.7271259
aF1481803190.0508649
aF1481803727.31618
aF1481803989.9981401
aF1481804245.2873449
aF1481804459.584826
aI600
tRp14
sS'window_interval'
p15
I144
sS'values'
p16
g12
((lp17
I2
aI2
aI2
aI32
aI3
aI1
aI1
aI6
aI5
aI4
aI1
aI3
aI1
aI4
aI600
tRp18
sS'cache_value'
p19
I0
sS'max_window_size'
p20
I600
sS'cache_start'
p21
Nsbs(Vjiemian
g2
tp22
g4
(g5
g6
NtRp23
(dp24
g9
F1481792194.7611539
sg10
F160.64767380555472
sg11
g12
((lp25
F1481792194.7611539
aI600
tRp26
sg15
I144
sg16
g12
((lp27
I1
aI600
tRp28
sg19
I0
sg20
I600
sg21
Nsbs(Vwaijiao
S'success'
p29
tp30
g4
(g5
g6
NtRp31
(dp32
g9
F1481788097.0780611
sg10
F189.1038067423635
sg11
g12
((lp33
F1481788097.0780611
aF1481799523.874171
aI600
tRp34
sg15
I144
sg16
g12
((lp35
I86
aI1
aI600
tRp36
sg19
I0
sg20
I600
sg21
Nsbs(S'waijiao'
S'pending'
p37
tp38
g4
(g5
g6
NtRp39
(dp40
g9
F1481788096.7279561
sg10
F189.10623797112041
sg11
g12
((lp41
F1481788096.7279561
aF1481799387.472759
aI600
tRp42
sg15
I144
sg16
g12
((lp43
I86
aI1
aI600
tRp44
sg19
I0
sg20
I600
sg21
Nsbs(S'jiemian'
g37
tp45
g4
(g5
g6
NtRp46
(dp47
g9
F1481792111.7362781
sg10
F161.2242355760601
sg11
g12
((lp48
F1481792111.7362781
aF1481792255.9657691
aF1481792558.3648641
aF1481799385.630409
aI600
tRp49
sg15
I144
sg16
g12
((lp50
I148
aI127
aI24
aI1
aI600
tRp51
sg19
I0
sg20
I600
sg21
Nsbs(Vtoutiao
g29
tp52
g4
(g5
g6
NtRp53
(dp54
g9
F1481796379.0872779
sg10
F131.58985410465135
sg11
g12
((lp55
F1481796379.0872779
aF1481798649.9877591
aF1481798794.774518
aF1481799012.2037449
aF1481799256.5049751
aF1481799401.1500211
aF1481799552.609936
aF1481800400.103579
aF1481800797.7393899
aI600
tRp56
sg15
I144
sg16
g12
((lp57
I51
aI6
aI26
aI16
aI15
aI117
aI23
aI5
aI1
aI600
tRp58
sg19
I0
sg20
I600
sg21
Nsbs(Vjiemian
g29
tp59
g4
(g5
g6
NtRp60
(dp61
g9
F1481792112.0950561
sg10
F161.22174399925603
sg11
g12
((lp62
F1481792112.0950561
aF1481792256.724134
aF1481792401.726867
aF1481792550.05179
aF1481796379.3466041
aF1481799492.006608
aI600
tRp63
sg15
I144
sg16
g12
((lp64
I98
aI89
aI65
aI41
aI6
aI1
aI600
tRp65
sg19
I0
sg20
I600
sg21
Nsbs(S'toutiao'
g37
tp66
g4
(g5
g6
NtRp67
(dp68
g9
F1481795990.0142751
sg10
F134.29174990289741
sg11
g12
((lp69
F1481795990.0142751
aF1481796379.2044909
aF1481798649.561738
aF1481799996.837774
aF1481800403.0720689
aI600
tRp70
sg15
I144
sg16
g12
((lp71
I1
aI51
aI220
aI1
aI1
aI600
tRp72
sg19
I0
sg20
I600
sg21
Nsbs.