(dp1
(S'chinaconsulate'
S'pending'
p2
tp3
ccopy_reg
_reconstructor
p4
(cpyspider.libs.counter
TimebaseAverageWindowCounter
p5
c__builtin__
object
p6
NtRp7
(dp8
S'_first_data_time'
p9
F1482136305.8785989
sS'window_size'
p10
F49.87311102781031
sS'times'
p11
ccollections
deque
p12
((lp13
F1482136305.8785989
aF1482140936.7469621
aI600
tRp14
sS'window_interval'
p15
I144
sS'values'
p16
g12
((lp17
I39
aI1
aI600
tRp18
sS'cache_value'
p19
I0
sS'max_window_size'
p20
I600
sS'cache_start'
p21
Nsbs(Vchinaconsulate
p22
S'success'
p23
tp24
g4
(g5
g6
NtRp25
(dp26
g9
F1482136306.2040279
sg10
F49.870851056443321
sg11
g12
((lp27
F1482136306.2040279
aF1482140937.3397641
aI600
tRp28
sg15
I144
sg16
g12
((lp29
I38
aI1
aI600
tRp30
sg19
I0
sg20
I600
sg21
Nsbs(Vjiemian
p31
S'retry'
p32
tp33
g4
(g5
g6
NtRp34
(dp35
g9
F1482138385.350342
sg10
F35.432333792249359
sg11
g12
((lp36
F1482138385.350342
aF1482138667.038523
aF1482138841.5014069
aF1482142037.6533511
aF1482142513.3901479
aF1482142669.6501241
aI600
tRp37
sg15
I144
sg16
g12
((lp38
I2
aI2
aI10
aI1
aI1
aI5
aI600
tRp39
sg19
I0
sg20
I600
sg21
Nsbs(Vchinaembassy
p40
g32
tp41
g4
(g5
g6
NtRp42
(dp43
g9
F1482136482.4230649
sg10
F48.647106778290535
sg11
g12
((lp44
F1482136482.4230649
aF1482140138.1711149
aI600
tRp45
sg15
I144
sg16
g12
((lp46
I6
aI3
aI600
tRp47
sg19
I0
sg20
I600
sg21
Nsbs(Vweibo
p48
g23
tp49
g4
(g5
g6
NtRp50
(dp51
g9
F1482142179.046736
sg10
F9.0872195826636428
sg11
g12
((lp52
F1482142179.046736
aF1482142459.615243
aF1482143035.5678351
aI600
tRp53
sg15
I144
sg16
g12
((lp54
I20
aI9
aI33
aI600
tRp55
sg19
I0
sg20
I600
sg21
Nsbs(Vchinesenzherald
p56
g23
tp57
g4
(g5
g6
NtRp58
(dp59
g9
F1482137013.0618229
sg10
F44.962115708324646
sg11
g12
((lp60
F1482137013.0618229
aF1482137518.6134501
aF1482140936.229388
aI600
tRp61
sg15
I144
sg16
g12
((lp62
I83
aI77
aI1
aI600
tRp63
sg19
I0
sg20
I600
sg21
Nsbs(Vfmprc
p64
g32
tp65
g4
(g5
g6
NtRp66
(dp67
g9
F1482137313.802213
sg10
F42.873641146553886
sg11
g12
((lp68
F1482137313.802213
aF1482137459.396214
aF1482141007.05639
aI600
tRp69
sg15
I144
sg16
g12
((lp70
I6
aI4
aI4
aI600
tRp71
sg19
I0
sg20
I600
sg21
Nsbs(S'chinaembassy'
g2
tp72
g4
(g5
g6
NtRp73
(dp74
g9
F1482136470.2296259
sg10
F48.731783520844246
sg11
g12
((lp75
F1482136470.2296259
aF1482140936.3632071
aI600
tRp76
sg15
I144
sg16
g12
((lp77
I43
aI1
aI600
tRp78
sg19
I0
sg20
I600
sg21
Nsbs(S'jiemian'
p79
g2
tp80
g4
(g5
g6
NtRp81
(dp82
g9
F1482138338.9328611
sg10
F35.754677499334015
sg11
g12
((lp83
F1482138338.9328611
aF1482138738.2279041
aF1482140934.5761621
aI600
tRp84
sg15
I144
sg16
g12
((lp85
I202
aI96
aI1
aI600
tRp86
sg19
I0
sg20
I600
sg21
Nsbs(S'chinesenzherald'
p87
g2
tp88
g4
(g5
g6
NtRp89
(dp90
g9
F1482137012.644768
sg10
F44.965011881457436
sg11
g12
((lp91
F1482137012.644768
aF1482137518.2130289
aF1482140935.6785829
aI600
tRp92
sg15
I144
sg16
g12
((lp93
I84
aI77
aI1
aI600
tRp94
sg19
I0
sg20
I600
sg21
Nsbs(Vskykiwichina
p95
g23
tp96
g4
(g5
g6
NtRp97
(dp98
g9
F1482141359.6750841
sg10
F14.777300728691948
sg11
g12
((lp99
F1482141359.6750841
aI600
tRp100
sg15
I144
sg16
g12
((lp101
I72
aI600
tRp102
sg19
I0
sg20
I600
sg21
Nsbs(Vchinaconsulate
p103
g32
tp104
g4
(g5
g6
NtRp105
(dp106
g9
F1482136350.6832671
sg10
F49.561967402696609
sg11
g12
((lp107
F1482136350.6832671
aF1482140001.2454021
aI600
tRp108
sg15
I144
sg16
g12
((lp109
I2
aI1
aI600
tRp110
sg19
I0
sg20
I600
sg21
Nsbs(S'weibo'
p111
g2
tp112
g4
(g5
g6
NtRp113
(dp114
g9
F1482142178.621295
sg10
F9.0901739862230091
sg11
g12
((lp115
F1482142178.621295
aF1482142460.192234
aF1482143034.783241
aI600
tRp116
sg15
I144
sg16
g12
((lp117
I101
aI5
aI13
aI600
tRp118
sg19
I0
sg20
I600
sg21
Nsbs(S'kannz'
p119
g2
tp120
g4
(g5
g6
NtRp121
(dp122
g9
F1482139438.2761049
sg10
F28.120350097616512
sg11
g12
((lp123
F1482139438.2761049
aF1482139642.2847741
aF1482140934.0003159
aI600
tRp124
sg15
I144
sg16
g12
((lp125
I170
aI40
aI1
aI600
tRp126
sg19
I0
sg20
I600
sg21
Nsbs(Vchinesenzherald
p127
g32
tp128
g4
(g5
g6
NtRp129
(dp130
g9
F1482137027.5167019
sg10
F44.861734514435135
sg11
g12
((lp131
F1482137027.5167019
aF1482137533.3626461
aF1482140680.1866729
aI600
tRp132
sg15
I144
sg16
g12
((lp133
I2
aI2
aI1
aI600
tRp134
sg19
I0
sg20
I600
sg21
Nsbs(Vweibo
p135
g32
tp136
g4
(g5
g6
NtRp137
(dp138
g9
F1482142187.2498441
sg10
F9.0302534500757847
sg11
g12
((lp139
F1482142187.2498441
aF1482142357.095109
aF1482143032.1965761
aI600
tRp140
sg15
I144
sg16
g12
((lp141
I12
aI16
aI91
aI600
tRp142
sg19
I0
sg20
I600
sg21
Nsbs(Vkannz
p143
g23
tp144
g4
(g5
g6
NtRp145
(dp146
g9
F1482139438.6854019
sg10
F28.117507709397209
sg11
g12
((lp147
F1482139438.6854019
aF1482139597.2048521
aF1482140934.4339941
aI600
tRp148
sg15
I144
sg16
g12
((lp149
I77
aI127
aI1
aI600
tRp150
sg19
I0
sg20
I600
sg21
Nsbs(Vskykiwichina
p151
g32
tp152
g4
(g5
g6
NtRp153
(dp154
g9
F1482141437.691277
sg10
F14.235521526800262
sg11
g12
((lp155
F1482141437.691277
aI600
tRp156
sg15
I144
sg16
g12
((lp157
I2
aI600
tRp158
sg19
I0
sg20
I600
sg21
Nsbs(Vrenmin
p159
g23
tp160
g4
(g5
g6
NtRp161
(dp162
g9
F1482140364.7097671
sg10
F21.686783686280251
sg11
g12
((lp163
F1482140364.7097671
aF1482140789.2237289
aF1482140933.841475
aF1482143076.812808
aI600
tRp164
sg15
I144
sg16
g12
((lp165
I15
aI1
aI1
aI2
aI600
tRp166
sg19
I0
sg20
I600
sg21
Nsbs(Vjiemian
p167
g23
tp168
g4
(g5
g6
NtRp169
(dp170
g9
F1482138339.299942
sg10
F35.752128284838463
sg11
g12
((lp171
F1482138339.299942
aF1482138489.3732531
aF1482138633.538754
aF1482138782.997483
aF1482138932.5673139
aF1482140925.7023201
aI600
tRp172
sg15
I144
sg16
g12
((lp173
I82
aI61
aI62
aI76
aI5
aI6
aI600
tRp174
sg19
I0
sg20
I600
sg21
Nsbs(S'fmprc'
p175
g2
tp176
g4
(g5
g6
NtRp177
(dp178
g9
F1482137279.584166
sg10
F43.111266555057632
sg11
g12
((lp179
F1482137279.584166
aF1482137911.6814721
aF1482140934.9354229
aI600
tRp180
sg15
I144
sg16
g12
((lp181
I85
aI1
aI1
aI600
tRp182
sg19
I0
sg20
I600
sg21
Nsbs(S'skykiwichina'
p183
g2
tp184
g4
(g5
g6
NtRp185
(dp186
g9
F1482141359.2413249
sg10
F14.780312904053265
sg11
g12
((lp187
F1482141359.2413249
aI600
tRp188
sg15
I144
sg16
g12
((lp189
I73
aI600
tRp190
sg19
I0
sg20
I600
sg21
Nsbs(Vfmprc
p191
g23
tp192
g4
(g5
g6
NtRp193
(dp194
g9
F1482137280.03725
sg10
F43.108120097054375
sg11
g12
((lp195
F1482137280.03725
aF1482137445.207056
aF1482137912.1318381
aF1482140935.5364699
aI600
tRp196
sg15
I144
sg16
g12
((lp197
I57
aI24
aI1
aI1
aI600
tRp198
sg19
I0
sg20
I600
sg21
Nsbs(Vkannz
p199
g32
tp200
g4
(g5
g6
NtRp201
(dp202
g9
F1482139506.918438
sg10
F27.643667131662369
sg11
g12
((lp203
F1482139506.918438
aF1482139658.8310759
aF1482140936.087358
aF1482143226.8600731
aI600
tRp204
sg15
I144
sg16
g12
((lp205
I5
aI1
aI8
aI2
aI600
tRp206
sg19
I0
sg20
I600
sg21
Nsbs(S'renmin'
p207
g2
tp208
g4
(g5
g6
NtRp209
(dp210
g9
F1482140364.3592269
sg10
F21.689217951562668
sg11
g12
((lp211
F1482140364.3592269
aF1482140788.8066831
aF1482140933.4244111
aF1482143076.286406
aI600
tRp212
sg15
I144
sg16
g12
((lp213
I39
aI1
aI1
aI2
aI600
tRp214
sg19
I0
sg20
I600
sg21
Nsbs(Vchinaembassy
p215
g23
tp216
g4
(g5
g6
NtRp217
(dp218
g9
F1482136470.5799429
sg10
F48.729350722498367
sg11
g12
((lp219
F1482136470.5799429
aF1482140937.0476429
aI600
tRp220
sg15
I144
sg16
g12
((lp221
I40
aI1
aI600
tRp222
sg19
I0
sg20
I600
sg21
Nsbs(Vrenmin
p223
g32
tp224
g4
(g5
g6
NtRp225
(dp226
g9
F1482140373.529768
sg10
F21.625533597336876
sg11
g12
((lp227
F1482140373.529768
aI600
tRp228
sg15
I144
sg16
g12
((lp229
I48
aI600
tRp230
sg19
I0
sg20
I600
sg21
Nsbs.