(dp1
(Vchinaconsulate
S'pending'
p2
tp3
ccopy_reg
_reconstructor
p4
(cpyspider.libs.counter
TimebaseAverageWindowCounter
p5
c__builtin__
object
p6
NtRp7
(dp8
S'_first_data_time'
p9
F1486180800.2335711
sS'window_size'
p10
I600
sS'times'
p11
ccollections
deque
p12
((lp13
F1486267200.4087231
aF1486281600.160872
aF1486317600.1463139
aF1486336163.4743011
aI600
tRp14
sS'window_interval'
p15
I144
sS'values'
p16
g12
((lp17
I1
aI1
aI1
aI1
aI600
tRp18
sS'cache_value'
p19
I0
sS'max_window_size'
p20
I600
sS'cache_start'
p21
Nsbs(Vjiemian
g2
tp22
g4
(g5
g6
NtRp23
(dp24
g9
F1486180800.1336229
sg10
I600
sg11
g12
((lp25
F1486267200.1753731
aF1486281600.198386
aF1486317600.1833539
aF1486336163.426764
aI600
tRp26
sg15
I144
sg16
g12
((lp27
I10
aI10
aI10
aI10
aI600
tRp28
sg19
I0
sg20
I600
sg21
Nsbs(Vchinanews
p29
S'success'
p30
tp31
g4
(g5
g6
NtRp32
(dp33
g9
F1486180802.8526151
sg10
I600
sg11
g12
((lp34
F1486267201.9202559
aF1486317602.9458909
aI600
tRp35
sg15
I144
sg16
g12
((lp36
I1
aI1
aI600
tRp37
sg19
I0
sg20
I600
sg21
Nsbs(Vstockstar
g2
tp38
g4
(g5
g6
NtRp39
(dp40
g9
F1486180800.226553
sg10
I600
sg11
g12
((lp41
F1486267200.405354
aF1486281600.1573839
aF1486317600.142967
aF1486336163.498415
aI600
tRp42
sg15
I144
sg16
g12
((lp43
I1
aI1
aI1
aI1
aI600
tRp44
sg19
I0
sg20
I600
sg21
Nsbs(S'skykiwichina'
p45
g2
tp46
g4
(g5
g6
NtRp47
(dp48
g9
F1486284991.8526061
sg10
F443.0831722766161
sg11
g12
((lp49
F1486284991.8526061
aF1486289370.096453
aF1486312054.9168439
aF1486317600.549145
aF1486324800.1951029
aF1486332000.1213629
aF1486339935.5262139
aF1486340729.394659
aI600
tRp50
sg15
I144
sg16
g12
((lp51
I74
aI1
aI1
aI1
aI1
aI14
aI1
aI15
aI600
tRp52
sg19
I0
sg20
I600
sg21
Nsbs(Vchinesenzherald
g30
tp53
g4
(g5
g6
NtRp54
(dp55
g9
F1486180803.4387491
sg10
I600
sg11
g12
((lp56
F1486267287.0922451
aF1486281605.859277
aF1486317730.917644
aF1486336165.952867
aF1486336424.9971049
aF1486336813.166784
aF1486337201.746244
aF1486338763.6775031
aI600
tRp57
sg15
I144
sg16
g12
((lp58
I15
aI10
aI7
aI6
aI2
aI2
aI3
aI1
aI600
tRp59
sg19
I0
sg20
I600
sg21
Nsbs(Vnzherald
S'retry'
p60
tp61
g4
(g5
g6
NtRp62
(dp63
g9
F1486180625.9460089
sg10
I600
sg11
g12
((lp64
F1486267321.0018649
aF1486271105.5474689
aF1486281610.895407
aF1486297581.1654611
aF1486317862.220387
aF1486318118.0451109
aF1486321850.694068
aF1486336685.7893381
aF1486337074.260432
aF1486337457.116142
aF1486337727.187216
aF1486337986.67607
aF1486338763.5753069
aF1486339023.2620239
aF1486339284.5721819
aF1486339547.0640221
aF1486339807.35271
aF1486340072.552093
aF1486340332.3152471
aF1486346529.1307061
aI600
tRp65
sg15
I144
sg16
g12
((lp66
I6
aI3
aI2
aI1
aI2
aI2
aI2
aI1
aI1
aI2
aI2
aI2
aI2
aI2
aI2
aI1
aI6
aI2
aI2
aI1
aI600
tRp67
sg19
I0
sg20
I600
sg21
Nsbs(Vchinanews
g2
tp68
g4
(g5
g6
NtRp69
(dp70
g9
F1486180800.4973581
sg10
I600
sg11
g12
((lp71
F1486267200.302037
aF1486317600.475101
aI600
tRp72
sg15
I144
sg16
g12
((lp73
I1
aI1
aI600
tRp74
sg19
I0
sg20
I600
sg21
Nsbs(Vsouthcn
S'failed'
p75
tp76
g4
(g5
g6
NtRp77
(dp78
g9
F1486206310.542953
sg10
I600
sg11
g12
((lp79
F1486318307.1320021
aI600
tRp80
sg15
I144
sg16
g12
((lp81
I1
aI600
tRp82
sg19
I0
sg20
I600
sg21
Nsbs(Vgovt
g2
tp83
g4
(g5
g6
NtRp84
(dp85
g9
F1486180800.137115
sg10
I600
sg11
g12
((lp86
F1486267200.178695
aF1486281600.1189449
aF1486317600.1280611
aF1486336163.71597
aI600
tRp87
sg15
I144
sg16
g12
((lp88
I40
aI40
aI40
aI40
aI600
tRp89
sg19
I0
sg20
I600
sg21
Nsbs(Vsouthcn
g30
tp90
g4
(g5
g6
NtRp91
(dp92
g9
F1486180595.54673
sg10
I600
sg11
g12
((lp93
F1486267201.8879991
aF1486281602.2460461
aF1486296817.2131569
aF1486297111.8872459
aF1486298833.0731759
aI600
tRp94
sg15
I144
sg16
g12
((lp95
I11
aI2
aI1
aI1
aI1
aI600
tRp96
sg19
I0
sg20
I600
sg21
Nsbs(Vfmprc
p97
g60
tp98
g4
(g5
g6
NtRp99
(dp100
g9
F1486231320.8930049
sg10
I600
sg11
g12
((lp101
F1486337987.0626409
aI600
tRp102
sg15
I144
sg16
g12
((lp103
I1
aI600
tRp104
sg19
I0
sg20
I600
sg21
Nsbs(Vetnet
g2
tp105
g4
(g5
g6
NtRp106
(dp107
g9
F1486180800.5617001
sg10
I600
sg11
g12
((lp108
F1486267200.37937
aF1486281600.3898561
aF1486317600.542583
aF1486336163.8337989
aI600
tRp109
sg15
I144
sg16
g12
((lp110
I1
aI1
aI1
aI1
aI600
tRp111
sg19
I0
sg20
I600
sg21
Nsbs(Vnzherald
g2
tp112
g4
(g5
g6
NtRp113
(dp114
g9
F1486180800.2440901
sg10
I600
sg11
g12
((lp115
F1486267200.2908061
aF1486281600.1334269
aF1486317600.156137
aF1486336163.4302559
aF1486348341.372592
aI600
tRp116
sg15
I144
sg16
g12
((lp117
I7
aI5
aI6
aI11
aI1
aI600
tRp118
sg19
I0
sg20
I600
sg21
Nsbs(Vgovt
g30
tp119
g4
(g5
g6
NtRp120
(dp121
g9
F1486180622.121263
sg10
I600
sg11
g12
((lp122
F1486267289.641434
aF1486281606.362968
aF1486317730.921222
aF1486336167.7449069
aF1486336940.563818
aF1486337329.13674
aF1486337591.552578
aF1486337858.6860681
aI600
tRp123
sg15
I144
sg16
g12
((lp124
I40
aI40
aI40
aI5
aI1
aI2
aI2
aI30
aI600
tRp125
sg19
I0
sg20
I600
sg21
Nsbs(Vetnet
p126
g30
tp127
g4
(g5
g6
NtRp128
(dp129
g9
F1486180803.2752719
sg10
I600
sg11
g12
((lp130
F1486267202.0979791
aF1486281601.8302851
aF1486317602.0319221
aF1486336165.73682
aI600
tRp131
sg15
I144
sg16
g12
((lp132
I1
aI1
aI1
aI1
aI600
tRp133
sg19
I0
sg20
I600
sg21
Nsbs(Vaucklandcouncil
g2
tp134
g4
(g5
g6
NtRp135
(dp136
g9
F1486180800.1821239
sg10
I600
sg11
g12
((lp137
F1486267200.2056029
aF1486281600.3998089
aF1486317600.3554411
aF1486336163.4538071
aI600
tRp138
sg15
I144
sg16
g12
((lp139
I2
aI2
aI2
aI2
aI600
tRp140
sg19
I0
sg20
I600
sg21
Nsbs(Vnzherald
g30
tp141
g4
(g5
g6
NtRp142
(dp143
g9
F1486180802.9836321
sg10
I600
sg11
g12
((lp144
F1486267289.5930181
aF1486281608.382602
aF1486317731.0029819
aF1486336168.3487
aI600
tRp145
sg15
I144
sg16
g12
((lp146
I4
aI4
aI4
aI4
aI600
tRp147
sg19
I0
sg20
I600
sg21
Nsbs(Vjrj
g30
tp148
g4
(g5
g6
NtRp149
(dp150
g9
F1486180803.6615269
sg10
I600
sg11
g12
((lp151
F1486267202.293088
aF1486281602.04144
aF1486317602.0356431
aF1486336165.7533741
aI600
tRp152
sg15
I144
sg16
g12
((lp153
I1
aI1
aI1
aI1
aI600
tRp154
sg19
I0
sg20
I600
sg21
Nsbs(Vchinesenzherald
g2
tp155
g4
(g5
g6
NtRp156
(dp157
g9
F1486180800.1407509
sg10
I600
sg11
g12
((lp158
F1486267200.1822
aF1486281600.1467769
aF1486317600.136059
aF1486336163.419946
aI600
tRp159
sg15
I144
sg16
g12
((lp160
I15
aI10
aI7
aI14
aI600
tRp161
sg19
I0
sg20
I600
sg21
Nsbs(Vstockstar
p162
g30
tp163
g4
(g5
g6
NtRp164
(dp165
g9
F1486180802.980432
sg10
I600
sg11
g12
((lp166
F1486267202.090724
aF1486281601.8379509
aF1486317601.8288381
aF1486336165.7312801
aI600
tRp167
sg15
I144
sg16
g12
((lp168
I1
aI1
aI1
aI1
aI600
tRp169
sg19
I0
sg20
I600
sg21
Nsbs(Vjrj
g2
tp170
g4
(g5
g6
NtRp171
(dp172
g9
F1486180800.4584341
sg10
I600
sg11
g12
((lp173
F1486267200.2649751
aF1486281600.2971749
aF1486317600.124505
aF1486336163.4163051
aI600
tRp174
sg15
I144
sg16
g12
((lp175
I1
aI1
aI1
aI1
aI600
tRp176
sg19
I0
sg20
I600
sg21
Nsbs(Vsouthcn
g60
tp177
g4
(g5
g6
NtRp178
(dp179
g9
F1486180802.460346
sg10
I600
sg11
g12
((lp180
F1486267287.088933
aF1486271099.196609
aF1486281605.666832
aF1486317731.4840679
aF1486317990.198611
aF1486318245.9091411
aF1486337986.8611939
aF1486339412.8442349
aF1486339807.3452001
aF1486340332.3116939
aF1486341259.169915
aF1486343854.636241
aF1486346529.134691
aF1486348615.112299
aI600
tRp181
sg15
I144
sg16
g12
((lp182
I2
aI1
aI4
aI1
aI1
aI1
aI1
aI1
aI2
aI1
aI1
aI1
aI1
aI1
aI600
tRp183
sg19
I0
sg20
I600
sg21
Nsbs(Vkannz
g2
tp184
g4
(g5
g6
NtRp185
(dp186
g9
F1486180800.3069999
sg10
I600
sg11
g12
((lp187
F1486267200.3153801
aF1486281600.206095
aF1486317600.1868579
aF1486336163.4336679
aI600
tRp188
sg15
I144
sg16
g12
((lp189
I3
aI3
aI4
aI3
aI600
tRp190
sg19
I0
sg20
I600
sg21
Nsbs(Vchinesenzherald
g60
tp191
g4
(g5
g6
NtRp192
(dp193
g9
F1486180818.855114
sg10
I600
sg11
g12
((lp194
F1486267320.301337
aF1486336940.5400529
aI600
tRp195
sg15
I144
sg16
g12
((lp196
I1
aI1
aI600
tRp197
sg19
I0
sg20
I600
sg21
Nsbs(Vgold678
g2
tp198
g4
(g5
g6
NtRp199
(dp200
g9
F1486180800.469228
sg10
I600
sg11
g12
((lp201
F1486267200.271786
aF1486281600.303813
aF1486317600.131624
aF1486336163.423285
aI600
tRp202
sg15
I144
sg16
g12
((lp203
I1
aI1
aI1
aI1
aI600
tRp204
sg19
I0
sg20
I600
sg21
Nsbs(Vkannz
g30
tp205
g4
(g5
g6
NtRp206
(dp207
g9
F1486180802.447439
sg10
I600
sg11
g12
((lp208
F1486267202.4955139
aF1486281602.7405119
aF1486317602.553858
aF1486336165.325192
aI600
tRp209
sg15
I144
sg16
g12
((lp210
I3
aI3
aI4
aI3
aI600
tRp211
sg19
I0
sg20
I600
sg21
Nsbs(Vchinaconsulate
p212
g30
tp213
g4
(g5
g6
NtRp214
(dp215
g9
F1486180878.4559481
sg10
I600
sg11
g12
((lp216
F1486267292.411639
aF1486281608.7990379
aF1486317731.179028
aF1486336552.3898211
aI600
tRp217
sg15
I144
sg16
g12
((lp218
I1
aI1
aI1
aI1
aI600
tRp219
sg19
I0
sg20
I600
sg21
Nsbs(Vchinaembassy
g2
tp220
g4
(g5
g6
NtRp221
(dp222
g9
F1486180800.2230971
sg10
I600
sg11
g12
((lp223
F1486281600.1535151
aF1486336163.4914999
aI600
tRp224
sg15
I144
sg16
g12
((lp225
I1
aI1
aI600
tRp226
sg19
I0
sg20
I600
sg21
Nsbs(Vrenmin
p227
g30
tp228
g4
(g5
g6
NtRp229
(dp230
g9
F1486180593.938282
sg10
I600
sg11
g12
((lp231
F1486267287.103334
aF1486281602.4458311
aF1486317862.2262981
aF1486336165.9360261
aI600
tRp232
sg15
I144
sg16
g12
((lp233
I1
aI1
aI1
aI1
aI600
tRp234
sg19
I0
sg20
I600
sg21
Nsbs(Vnzherald
g75
tp235
g4
(g5
g6
NtRp236
(dp237
g9
F1486180650.3233271
sg10
I600
sg11
g12
((lp238
F1486274476.6358931
aF1486298833.2823019
aF1486319313.3711441
aI600
tRp239
sg15
I144
sg16
g12
((lp240
I4
aI3
aI1
aI600
tRp241
sg19
I0
sg20
I600
sg21
Nsbs(Vaucklandcouncil
p242
g30
tp243
g4
(g5
g6
NtRp244
(dp245
g9
F1486180802.85624
sg10
I600
sg11
g12
((lp246
F1486267202.2965429
aF1486281603.0657511
aF1486317603.141139
aF1486336165.53198
aI600
tRp247
sg15
I144
sg16
g12
((lp248
I2
aI2
aI2
aI2
aI600
tRp249
sg19
I0
sg20
I600
sg21
Nsbs(Vchinaqw
g30
tp250
g4
(g5
g6
NtRp251
(dp252
g9
F1486180596.7614541
sg10
I600
sg11
g12
((lp253
F1486267287.079617
aF1486281602.033947
aF1486317601.629782
aF1486336164.622699
aI600
tRp254
sg15
I144
sg16
g12
((lp255
I1
aI1
aI1
aI1
aI600
tRp256
sg19
I0
sg20
I600
sg21
Nsbs(Vjiemian
g30
tp257
g4
(g5
g6
NtRp258
(dp259
g9
F1486180801.944124
sg10
I600
sg11
g12
((lp260
F1486267212.9663301
aF1486281605.6586471
aF1486317602.5355971
aF1486336166.3365691
aF1486336685.795903
aF1486336940.5472331
aF1486337201.7532051
aI600
tRp261
sg15
I144
sg16
g12
((lp262
I10
aI10
aI10
aI6
aI1
aI1
aI2
aI600
tRp263
sg19
I0
sg20
I600
sg21
Nsbs(Vchinaembassy
p264
g30
tp265
g4
(g5
g6
NtRp266
(dp267
g9
F1486180819.9726319
sg10
I600
sg11
g12
((lp268
F1486281611.3961239
aF1486336167.9543819
aI600
tRp269
sg15
I144
sg16
g12
((lp270
I1
aI1
aI600
tRp271
sg19
I0
sg20
I600
sg21
Nsbs(Vfmprc
g2
tp272
g4
(g5
g6
NtRp273
(dp274
g9
F1486180800.3942671
sg10
I600
sg11
g12
((lp275
F1486267200.52388
aF1486281600.269603
aF1486317600.2562821
aF1486336163.600481
aI600
tRp276
sg15
I144
sg16
g12
((lp277
I1
aI1
aI1
aI1
aI600
tRp278
sg19
I0
sg20
I600
sg21
Nsbs(Vskykiwichina
p279
g75
tp280
g4
(g5
g6
NtRp281
(dp282
g9
F1486336019.034291
sg10
F88.727743597494225
sg11
g12
((lp283
F1486336019.034291
aF1486339413.048295
aI600
tRp284
sg15
I144
sg16
g12
((lp285
I2
aI1
aI600
tRp286
sg19
I0
sg20
I600
sg21
Nsbs(Vskykiwichina
g60
tp287
g4
(g5
g6
NtRp288
(dp289
g9
F1486284998.597235
sg10
F443.03633437554043
sg11
g12
((lp290
F1486284998.597235
aF1486293830.253052
aF1486298166.608078
aF1486298444.1334469
aF1486298833.0792911
aF1486301454.109617
aF1486303861.744446
aF1486308009.717694
aF1486308468.912112
aF1486311750.9614589
aF1486312054.9037881
aF1486315354.9136391
aF1486332624.4340839
aF1486334121.817502
aF1486339935.3220301
aI600
tRp291
sg15
I144
sg16
g12
((lp292
I1
aI1
aI3
aI7
aI8
aI1
aI1
aI1
aI1
aI1
aI2
aI1
aI1
aI1
aI1
aI600
tRp293
sg19
I0
sg20
I600
sg21
Nsbs(Vgold678
p294
g30
tp295
g4
(g5
g6
NtRp296
(dp297
g9
F1486180804.3761439
sg10
I600
sg11
g12
((lp298
F1486267328.9758191
aF1486281687.1973829
aF1486317603.3477099
aF1486336165.9328451
aI600
tRp299
sg15
I144
sg16
g12
((lp300
I1
aI1
aI1
aI1
aI600
tRp301
sg19
I0
sg20
I600
sg21
Nsbs(Vfmprc
p302
g30
tp303
g4
(g5
g6
NtRp304
(dp305
g9
F1486181124.183126
sg10
I600
sg11
g12
((lp306
F1486267289.7976191
aF1486281689.0041549
aF1486317731.2350039
aF1486339412.641607
aI600
tRp307
sg15
I144
sg16
g12
((lp308
I1
aI1
aI1
aI1
aI600
tRp309
sg19
I0
sg20
I600
sg21
Nsbs(Vskykiwichina
g30
tp310
g4
(g5
g6
NtRp311
(dp312
g9
F1486284992.1547749
sg10
F443.08107378582162
sg11
g12
((lp313
F1486284992.1547749
aF1486285445.197427
aF1486285728.7959559
aF1486289080.6775
aF1486289240.904295
aF1486290172.9807539
aF1486290349.585402
aF1486290692.3059609
aF1486290846.5306151
aF1486290995.756393
aF1486291141.1859629
aF1486291871.6816521
aF1486292166.429847
aF1486292317.9832871
aF1486292595.6215789
aF1486292869.7343199
aF1486293356.756659
aF1486293679.6000431
aF1486293830.2483289
aF1486294103.341136
aF1486294247.7648489
aF1486294522.165257
aF1486294673.7198651
aF1486294854.2462289
aF1486295000.5426631
aF1486295374.5163529
aF1486295562.1479061
aF1486295829.6122329
aF1486296261.6763811
aF1486296687.8383329
aF1486296978.9962721
aF1486297254.208318
aF1486297452.9993451
aF1486297718.478013
aF1486298977.854939
aF1486299455.185704
aF1486299645.74279
aF1486299861.6764829
aF1486300007.4461191
aF1486300280.9749081
aF1486300425.2392941
aF1486300594.2870619
aF1486300861.8720379
aF1486301280.2242529
aF1486301454.1041
aF1486301608.7430151
aF1486301824.793293
aF1486301977.572155
aF1486302163.2688
aF1486302587.9331591
aF1486302744.168968
aF1486303025.943239
aF1486303525.787811
aF1486303670.3673191
aF1486303861.542726
aF1486312060.2391219
aF1486317731.135035
aF1486324810.2619231
aF1486332009.578819
aF1486332157.99823
aF1486332337.007
aF1486332492.157455
aF1486332810.2887521
aF1486333003.371927
aF1486333153.585176
aF1486333313.373661
aF1486333490.063966
aF1486333792.3111689
aF1486333936.5771649
aF1486340729.390816
aF1486341391.1653409
aF1486341727.0622721
aF1486341875.279783
aF1486342031.661993
aF1486342452.828264
aF1486342597.2065611
aF1486342778.6473849
aF1486343066.899224
aF1486343239.7723031
aF1486343544.7267411
aF1486343727.466403
aI600
tRp314
sg15
I144
sg16
g12
((lp315
I2
aI2
aI1
aI1
aI3
aI1
aI1
aI1
aI1
aI1
aI2
aI1
aI1
aI2
aI2
aI2
aI1
aI1
aI2
aI1
aI2
aI1
aI1
aI1
aI2
aI1
aI2
aI1
aI2
aI1
aI1
aI1
aI1
aI1
aI2
aI1
aI1
aI1
aI2
aI1
aI1
aI1
aI1
aI1
aI1
aI1
aI1
aI1
aI1
aI1
aI2
aI1
aI1
aI1
aI2
aI1
aI1
aI1
aI1
aI1
aI1
aI2
aI1
aI1
aI1
aI1
aI2
aI1
aI1
aI1
aI1
aI1
aI1
aI2
aI1
aI1
aI2
aI1
aI2
aI1
aI2
aI600
tRp316
sg19
I0
sg20
I600
sg21
Nsbs(Vrenmin
g2
tp317
g4
(g5
g6
NtRp318
(dp319
g9
F1486180800.52092
sg10
I600
sg11
g12
((lp320
F1486267200.32599
aF1486281600.3374741
aF1486317600.499696
aF1486336163.894243
aI600
tRp321
sg15
I144
sg16
g12
((lp322
I1
aI1
aI1
aI1
aI600
tRp323
sg19
I0
sg20
I600
sg21
Nsbs(Vsouthcn
g2
tp324
g4
(g5
g6
NtRp325
(dp326
g9
F1486180800.2151029
sg10
I600
sg11
g12
((lp327
F1486267200.294167
aF1486281600.1501789
aF1486317600.139333
aF1486336163.478137
aI600
tRp328
sg15
I144
sg16
g12
((lp329
I12
aI4
aI1
aI1
aI600
tRp330
sg19
I0
sg20
I600
sg21
Nsbs(Vrenmin
p331
g60
tp332
g4
(g5
g6
NtRp333
(dp334
g9
F1486317731.1499779
sg10
F215.72694122956858
sg11
g12
((lp335
F1486317731.1499779
aI600
tRp336
sg15
I144
sg16
g12
((lp337
I1
aI600
tRp338
sg19
I0
sg20
I600
sg21
Nsbs(Vchinaqw
g2
tp339
g4
(g5
g6
NtRp340
(dp341
g9
F1486180596.7652371
sg10
I600
sg11
g12
((lp342
F1486267200.492552
aF1486281600.219311
aF1486317600.2137251
aF1486336163.5870039
aI600
tRp343
sg15
I144
sg16
g12
((lp344
I1
aI1
aI1
aI1
aI600
tRp345
sg19
I0
sg20
I600
sg21
Nsbs.