(dp1
(Vtoutiao
p2
S'retry'
p3
tp4
ccopy_reg
_reconstructor
p5
(cpyspider.libs.counter
TimebaseAverageWindowCounter
p6
c__builtin__
object
p7
NtRp8
(dp9
S'_first_data_time'
p10
F1484524813.5314341
sS'window_size'
p11
I0
sS'times'
p12
ccollections
deque
p13
((lI60
tRp14
sS'window_interval'
p15
I60
sS'values'
p16
g13
((lI60
tRp17
sS'cache_value'
p18
I2
sS'max_window_size'
p19
I60
sS'cache_start'
p20
F1484524813.5314341
sbs(Vchinanews
p21
S'pending'
p22
tp23
g5
(g6
g7
NtRp24
(dp25
g10
F1484524800.6408839
sg11
I0
sg12
g13
((lI60
tRp26
sg15
I60
sg16
g13
((lI60
tRp27
sg18
I1
sg19
I60
sg20
F1484524800.6408839
sbs(Vchinanews
p28
S'success'
p29
tp30
g5
(g6
g7
NtRp31
(dp32
g10
F1484524803.9204559
sg11
I0
sg12
g13
((lI60
tRp33
sg15
I60
sg16
g13
((lI60
tRp34
sg18
I1
sg19
I60
sg20
F1484524803.9204559
sbs(Vskykiwichina
p35
g22
tp36
g5
(g6
g7
NtRp37
(dp38
g10
F1484524800.899889
sg11
I0
sg12
g13
((lI60
tRp39
sg15
I60
sg16
g13
((lI60
tRp40
sg18
I45
sg19
I60
sg20
F1484524800.899889
sbs(Vweibo
p41
g29
tp42
g5
(g6
g7
NtRp43
(dp44
g10
F1484485201.777787
sg11
I0
sg12
g13
((lp45
F1484485201.777787
aF1484492401.41451
aF1484499602.336745
aF1484506801.4316039
aF1484514001.7456961
aI60
tRp46
sg15
I60
sg16
g13
((lp47
I10
aI10
aI10
aI10
aI10
aI60
tRp48
sg18
I10
sg19
I60
sg20
F1484521201.964921
sbs(Vchinesenzherald
p49
g29
tp50
g5
(g6
g7
NtRp51
(dp52
g10
F1484524804.5127439
sg11
I0
sg12
g13
((lp53
F1484524804.5127439
aI60
tRp54
sg15
I60
sg16
g13
((lp55
I12
aI60
tRp56
sg18
I12
sg19
I60
sg20
F1484525925.4963181
sbs(Vetnet
g22
tp57
g5
(g6
g7
NtRp58
(dp59
g10
F1484222400.1243751
sg11
I60
sg12
g13
((lp60
F1484481600.2033031
aI60
tRp61
sg15
I60
sg16
g13
((lp62
I1
aI60
tRp63
sg18
I8
sg19
I60
sg20
F1484524800.8958671
sbs(Vchinesenzherald
p64
g22
tp65
g5
(g6
g7
NtRp66
(dp67
g10
F1484524800.2133889
sg11
I0
sg12
g13
((lp68
F1484524800.2133889
aI60
tRp69
sg15
I60
sg16
g13
((lp70
I30
aI60
tRp71
sg18
I7
sg19
I60
sg20
F1484525947.839638
sbs(Vetnet
g29
tp72
g5
(g6
g7
NtRp73
(dp74
g10
F1484222401.83197
sg11
I60
sg12
g13
((lp75
F1484481602.375613
aI60
tRp76
sg15
I60
sg16
g13
((lp77
I1
aI60
tRp78
sg18
I1
sg19
I60
sg20
F1484524803.305258
sbs(Vaucklandcouncil
p79
g22
tp80
g5
(g6
g7
NtRp81
(dp82
g10
F1484524800.3318651
sg11
I0
sg12
g13
((lI60
tRp83
sg15
I60
sg16
g13
((lI60
tRp84
sg18
I8
sg19
I60
sg20
F1484524800.3318651
sbs(Vjrj
g29
tp85
g5
(g6
g7
NtRp86
(dp87
g10
F1484222402.032768
sg11
I60
sg12
g13
((lp88
F1484481602.5623479
aF1484481665.6611321
aF1484524803.6100321
aI60
tRp89
sg15
I60
sg16
g13
((lp90
I26
aI21
aI9
aI60
tRp91
sg18
I6
sg19
I60
sg20
F1484525925.3845789
sbs(Vjiemian
p92
g22
tp93
g5
(g6
g7
NtRp94
(dp95
g10
F1484524800.185329
sg11
I0
sg12
g13
((lI60
tRp96
sg15
I60
sg16
g13
((lI60
tRp97
sg18
I50
sg19
I60
sg20
F1484524800.185329
sbs(Vjrj
g22
tp98
g5
(g6
g7
NtRp99
(dp100
g10
F1484222400.196032
sg11
I60
sg12
g13
((lp101
F1484481600.2191401
aI60
tRp102
sg15
I60
sg16
g13
((lp103
I47
aI60
tRp104
sg18
I39
sg19
I60
sg20
F1484524800.5195739
sbs(Vskykiwichina
p105
g29
tp106
g5
(g6
g7
NtRp107
(dp108
g10
F1484524813.100297
sg11
I0
sg12
g13
((lp109
F1484524813.100297
aI60
tRp110
sg15
I60
sg16
g13
((lp111
I3
aI60
tRp112
sg18
I3
sg19
I60
sg20
F1484525924.3781409
sbs(Vweibo
p113
g22
tp114
g5
(g6
g7
NtRp115
(dp116
g10
F1484485200.16171
sg11
I0
sg12
g13
((lp117
F1484485200.16171
aF1484492400.1172781
aF1484499600.1246159
aF1484506800.123951
aF1484514000.1356189
aI60
tRp118
sg15
I60
sg16
g13
((lp119
I10
aI10
aI10
aI10
aI10
aI60
tRp120
sg18
I10
sg19
I60
sg20
F1484521200.1429441
sbs(Vkannz
p121
g22
tp122
g5
(g6
g7
NtRp123
(dp124
g10
F1484524800.199048
sg11
I0
sg12
g13
((lI60
tRp125
sg15
I60
sg16
g13
((lI60
tRp126
sg18
I11
sg19
I60
sg20
F1484524800.199048
sbs(Vtoutiao
p127
g22
tp128
g5
(g6
g7
NtRp129
(dp130
g10
F1484524800.8888669
sg11
I0
sg12
g13
((lI60
tRp131
sg15
I60
sg16
g13
((lI60
tRp132
sg18
I2
sg19
I60
sg20
F1484524800.8888669
sbs(Vchinesenzherald
p133
g3
tp134
g5
(g6
g7
NtRp135
(dp136
g10
F1484524813.569905
sg11
I0
sg12
g13
((lI60
tRp137
sg15
I60
sg16
g13
((lI60
tRp138
sg18
I2
sg19
I60
sg20
F1484524813.569905
sbs(Vgold678
g22
tp139
g5
(g6
g7
NtRp140
(dp141
g10
F1484222400.148531
sg11
I60
sg12
g13
((lp142
F1484481600.2098379
aI60
tRp143
sg15
I60
sg16
g13
((lp144
I1
aI60
tRp145
sg18
I1
sg19
I60
sg20
F1484524800.6274531
sbs(Vkannz
p146
g29
tp147
g5
(g6
g7
NtRp148
(dp149
g10
F1484524802.9018481
sg11
I0
sg12
g13
((lp150
F1484524802.9018481
aI60
tRp151
sg15
I60
sg16
g13
((lp152
I10
aI60
tRp153
sg18
I1
sg19
I60
sg20
F1484525925.6960571
sbs(Vrenmin
p154
g29
tp155
g5
(g6
g7
NtRp156
(dp157
g10
F1484524802.7072151
sg11
I0
sg12
g13
((lI60
tRp158
sg15
I60
sg16
g13
((lI60
tRp159
sg18
I1
sg19
I60
sg20
F1484524802.7072151
sbs(Vaucklandcouncil
p160
g29
tp161
g5
(g6
g7
NtRp162
(dp163
g10
F1484524803.507025
sg11
I0
sg12
g13
((lp164
F1484524803.507025
aI60
tRp165
sg15
I60
sg16
g13
((lp166
I7
aI60
tRp167
sg18
I1
sg19
I60
sg20
F1484525925.7024779
sbs(Vchinaqw
p168
g29
tp169
g5
(g6
g7
NtRp170
(dp171
g10
F1484222402.3524871
sg11
I60
sg12
g13
((lp172
F1484481601.1523621
aI60
tRp173
sg15
I60
sg16
g13
((lp174
I1
aI60
tRp175
sg18
I1
sg19
I60
sg20
F1484524801.693119
sbs(Vjiemian
p176
g29
tp177
g5
(g6
g7
NtRp178
(dp179
g10
F1484524802.4972579
sg11
I0
sg12
g13
((lp180
F1484524802.4972579
aI60
tRp181
sg15
I60
sg16
g13
((lp182
I10
aI60
tRp183
sg18
I6
sg19
I60
sg20
F1484525925.7062969
sbs(Vetnet
p184
g3
tp185
g5
(g6
g7
NtRp186
(dp187
g10
F1484524813.4906111
sg11
I0
sg12
g13
((lp188
F1484524813.4906111
aI60
tRp189
sg15
I60
sg16
g13
((lp190
I6
aI60
tRp191
sg18
I1
sg19
I60
sg20
F1484525925.7350049
sbs(Vfmprc
g22
tp192
g5
(g6
g7
NtRp193
(dp194
g10
F1484222400.1883409
sg11
I60
sg12
g13
((lp195
F1484481600.1540971
aI60
tRp196
sg15
I60
sg16
g13
((lp197
I1
aI60
tRp198
sg18
I1
sg19
I60
sg20
F1484524800.338289
sbs(Vnbr
g29
tp199
g5
(g6
g7
NtRp200
(dp201
g10
F1484222437.4549661
sg11
I60
sg12
g13
((lp202
F1484481636.581475
aI60
tRp203
sg15
I60
sg16
g13
((lp204
I6
aI60
tRp205
sg18
I0
sg19
I60
sg20
Nsbs(Vgold678
p206
g29
tp207
g5
(g6
g7
NtRp208
(dp209
g10
F1484222402.3354959
sg11
I60
sg12
g13
((lp210
F1484481602.3790679
aI60
tRp211
sg15
I60
sg16
g13
((lp212
I1
aI60
tRp213
sg18
I1
sg19
I60
sg20
F1484524802.904799
sbs(Vfmprc
p214
g29
tp215
g5
(g6
g7
NtRp216
(dp217
g10
F1484222408.2874811
sg11
I60
sg12
g13
((lp218
F1484481608.90803
aI60
tRp219
sg15
I60
sg16
g13
((lp220
I1
aI60
tRp221
sg18
I1
sg19
I60
sg20
F1484524814.0276501
sbs(Vrenmin
p222
g22
tp223
g5
(g6
g7
NtRp224
(dp225
g10
F1484524800.9041619
sg11
I0
sg12
g13
((lI60
tRp226
sg15
I60
sg16
g13
((lI60
tRp227
sg18
I1
sg19
I60
sg20
F1484524800.9041619
sbs(Vnbr
g22
tp228
g5
(g6
g7
NtRp229
(dp230
g10
F1484222400.120414
sg11
I60
sg12
g13
((lp231
F1484481600.1503601
aI60
tRp232
sg15
I60
sg16
g13
((lp233
I6
aI60
tRp234
sg18
I0
sg19
I60
sg20
Nsbs(Vchinaqw
g22
tp235
g5
(g6
g7
NtRp236
(dp237
g10
F1484222400.1816871
sg11
I60
sg12
g13
((lp238
F1484481600.147022
aI60
tRp239
sg15
I60
sg16
g13
((lp240
I1
aI60
tRp241
sg18
I1
sg19
I60
sg20
F1484524800.2799499
sbs.