(dp1
(Vtest
p2
S'failed'
p3
tp4
ccopy_reg
_reconstructor
p5
(cpyspider.libs.counter
TimebaseAverageWindowCounter
p6
c__builtin__
object
p7
NtRp8
(dp9
S'_first_data_time'
p10
F1484823242.117135
sS'window_size'
p11
F368.35004529191389
sS'times'
p12
ccollections
deque
p13
((lp14
F1484823242.117135
aF1484823421.725174
aF1484823602.008172
aF1484823781.8925991
aF1484823961.9123781
aF1484824141.7808721
aF1484824321.8679919
aF1484824502.0510969
aF1484824681.9341459
aF1484824861.914978
aF1484825041.921788
aF1484825222.00372
aF1484825401.6865499
aF1484825582.0767109
aF1484825761.966409
aF1484825941.8413391
aF1484826121.7574129
aF1484826301.8559201
aF1484826481.963042
aF1484826661.86164
aF1484826841.75137
aF1484827021.9499991
aF1484827202.1332929
aF1484827381.8353331
aF1484827562.5446861
aF1484827742.12608
aF1484827921.9254961
aF1484828101.8913059
aF1484828282.02441
aF1484828461.9056239
aF1484828641.720608
aF1484828821.8280239
aF1484829002.0269251
aF1484829181.6162181
aF1484829361.689822
aF1484829542.0968511
aF1484829721.8898611
aF1484829902.0804
aF1484830081.8526089
aF1484830261.9757431
aF1484830441.9491069
aF1484830621.7473111
aF1484830801.9142621
aF1484830981.746202
aF1484831161.7211649
aF1484831341.9541841
aF1484831521.8360529
aF1484831702.0284259
aF1484831881.8355279
aF1484832062.050554
aF1484832242.0403919
aF1484832421.6380441
aF1484832601.9697809
aF1484832782.176275
aF1484832962.075964
aF1484833141.640682
aF1484833321.973381
aF1484833502.346823
aF1484833681.861551
aF1484833861.851613
aF1484834041.9429729
aF1484834222.1513951
aF1484834402.176105
aF1484834582.0620601
aF1484834762.078984
aF1484834942.0684161
aF1484835122.0338891
aF1484835302.059418
aF1484835482.282815
aF1484835662.155906
aF1484835842.091188
aF1484836022.0730629
aF1484836201.9714921
aF1484836382.3950939
aF1484836561.9620559
aF1484836741.9514749
aF1484836922.3500299
aF1484837102.156666
aF1484837281.9705081
aF1484837462.0517631
aF1484837642.2669251
aF1484837821.847724
aF1484838002.1642251
aF1484838182.112911
aF1484838361.914269
aF1484838541.9206159
aF1484838722.1022789
aF1484838901.6929619
aF1484839082.190809
aF1484839261.788368
aF1484839441.6694429
aF1484839621.859025
aF1484839802.032969
aF1484839981.932833
aF1484840161.7970541
aF1484840342.0881701
aF1484840521.8699861
aF1484840701.9777949
aF1484840882.0348661
aF1484841062.1081221
aF1484841241.9645259
aF1484841421.9381909
aF1484841602.4320991
aF1484841782.0070679
aF1484841961.8162191
aF1484842142.0727949
aF1484842321.8549571
aF1484842501.8631599
aF1484842682.0697401
aF1484842862.034605
aF1484843042.0241351
aF1484843222.0222659
aF1484843401.912425
aF1484843581.8850739
aF1484843761.976413
aF1484843941.7499959
aF1484844121.856627
aF1484844302.0219209
aF1484844482.1524651
aF1484844661.8505411
aF1484844841.9395821
aF1484845021.7535069
aF1484845202.1442969
aF1484845382.044174
aF1484845561.803026
aF1484845741.9341409
aF1484845921.998343
aF1484846101.8985839
aF1484846281.8880711
aF1484846461.9029191
aF1484846641.9008329
aF1484846821.715385
aF1484847002.207186
aF1484847181.721283
aF1484847362.011472
aF1484847542.0928619
aF1484847721.6913159
aF1484847901.9990261
aF1484848081.889581
aF1484848261.671488
aF1484848441.9025309
aF1484848621.9109221
aF1484848802.2778831
aF1484848981.685312
aF1484849162.1272881
aF1484849341.7013891
aF1484849521.599695
aF1484849701.7245691
aF1484849881.898016
aF1484850061.8129239
aF1484850241.711611
aF1484850421.918499
aF1484850602.017086
aF1484850781.8331671
aF1484850961.9230371
aF1484851141.8457301
aF1484851321.9268169
aF1484851501.741606
aF1484851681.9402299
aF1484851861.8295059
aF1484852041.9606471
aF1484852222.0169411
aF1484852402.5547061
aF1484852581.949919
aF1484852761.8584731
aF1484852942.0561631
aF1484853121.854085
aF1484853301.861305
aF1484853482.1769309
aF1484853661.774781
aF1484853841.997628
aF1484854022.079124
aF1484854201.954778
aF1484854382.086081
aF1484854561.8588419
aF1484854741.956984
aF1484854921.747303
aF1484855101.9792311
aF1484855281.953795
aF1484855461.8602121
aF1484855641.958662
aF1484855821.833647
aF1484856002.150121
aF1484856181.797303
aF1484856362.8205619
aF1484856542.9792471
aF1484856722.710407
aF1484856902.609288
aF1484857081.839195
aF1484857262.117578
aF1484857442.0189371
aF1484857621.896112
aF1484857802.2137661
aF1484857981.9461551
aF1484858161.806874
aF1484858342.0313079
aF1484858521.692997
aF1484858702.360141
aF1484858882.017545
aF1484859061.9319839
aF1484859241.9138911
aF1484859422.0213161
aF1484859602.237901
aF1484859781.720041
aF1484859961.720619
aF1484860141.913022
aF1484860321.8111789
aF1484860501.7943921
aF1484860682.251713
aF1484860861.916594
aF1484861041.840503
aF1484861221.8136549
aF1484861401.6541359
aF1484861581.7518749
aF1484861761.9686141
aF1484861941.6501031
aF1484862122.1400089
aF1484862302.114397
aF1484862481.8303211
aF1484862661.8951399
aF1484862841.9109991
aF1484863021.8013361
aF1484863202.3012431
aF1484863382.0010109
aF1484863561.8848541
aF1484863741.9082699
aF1484863921.916477
aF1484864101.9982021
aF1484864281.7564039
aF1484864461.9712989
aF1484864641.8942721
aF1484864821.8089671
aF1484865001.6988511
aF1484865182.188164
aF1484865362.0778091
aF1484865542.1109231
aF1484865722.0167921
aF1484865901.932966
aF1484866081.813988
aF1484866261.819962
aF1484866442.0019839
aF1484866621.691457
aF1484866802.1993949
aF1484866981.9151571
aF1484867161.766784
aF1484867342.023448
aF1484867521.8304279
aF1484867701.846473
aF1484867881.7632051
aF1484868061.7362709
aF1484868241.635021
aF1484868422.400394
aF1484868602.074672
aF1484868782.0079329
aF1484868961.965205
aF1484869141.8804519
aF1484869321.778815
aF1484869502.0129681
aF1484869681.8009629
aF1484869861.876302
aF1484870041.785702
aF1484870222.1770861
aF1484870402.201457
aF1484870581.710427
aF1484870761.9190941
aF1484870941.8002839
aF1484871122.0992401
aF1484871302.2396891
aF1484871481.9957099
aF1484871661.8355191
aF1484871842.0165851
aF1484872021.8224721
aF1484872202.014905
aF1484872381.7295229
aF1484872561.594099
aF1484872741.8839149
aF1484872922.098707
aF1484873101.714165
aF1484873281.9971769
aF1484873461.7953119
aF1484873642.3355081
aF1484873821.9753489
aF1484874002.2772751
aF1484874181.943903
aF1484874361.8269329
aF1484874542.0065911
aF1484874721.860158
aF1484874901.8188069
aF1484875081.9127541
aF1484875261.7790999
aF1484875441.8514171
aF1484875621.7266619
aF1484875802.050616
aF1484875982.4208691
aF1484876162.6824341
aI600
tRp15
sS'window_interval'
p16
I144
sS'values'
p17
g13
((lp18
I1
aI1
aI1
aI2
aI1
aI1
aI1
aI1
aI1
aI1
aI1
aI1
aI1
aI1
aI1
aI1
aI1
aI1
aI1
aI1
aI1
aI1
aI1
aI2
aI1
aI1
aI1
aI1
aI1
aI1
aI1
aI1
aI1
aI1
aI1
aI1
aI1
aI1
aI1
aI1
aI1
aI1
aI1
aI2
aI1
aI1
aI1
aI1
aI1
aI1
aI1
aI1
aI1
aI1
aI1
aI1
aI1
aI1
aI1
aI1
aI1
aI1
aI1
aI2
aI1
aI1
aI1
aI1
aI1
aI1
aI1
aI1
aI1
aI1
aI1
aI1
aI1
aI1
aI1
aI1
aI1
aI1
aI1
aI2
aI1
aI1
aI1
aI1
aI1
aI1
aI1
aI1
aI1
aI1
aI1
aI1
aI1
aI1
aI1
aI1
aI1
aI1
aI1
aI2
aI1
aI1
aI1
aI1
aI1
aI1
aI1
aI1
aI1
aI1
aI1
aI1
aI1
aI1
aI1
aI1
aI1
aI1
aI1
aI2
aI1
aI1
aI1
aI1
aI1
aI1
aI1
aI1
aI1
aI1
aI1
aI1
aI1
aI1
aI1
aI1
aI1
aI1
aI1
aI2
aI1
aI1
aI1
aI1
aI1
aI1
aI1
aI1
aI1
aI1
aI1
aI1
aI1
aI1
aI1
aI1
aI1
aI1
aI1
aI2
aI1
aI1
aI1
aI1
aI1
aI1
aI1
aI1
aI1
aI1
aI1
aI1
aI1
aI1
aI1
aI1
aI1
aI1
aI1
aI2
aI1
aI1
aI1
aI1
aI1
aI1
aI1
aI1
aI1
aI1
aI1
aI1
aI1
aI1
aI1
aI1
aI1
aI1
aI1
aI2
aI1
aI1
aI1
aI1
aI1
aI1
aI1
aI1
aI1
aI1
aI1
aI1
aI1
aI1
aI1
aI1
aI1
aI1
aI1
aI2
aI1
aI1
aI1
aI1
aI1
aI1
aI1
aI1
aI1
aI1
aI1
aI1
aI1
aI1
aI1
aI1
aI1
aI1
aI1
aI2
aI1
aI1
aI1
aI1
aI1
aI1
aI1
aI1
aI1
aI1
aI1
aI1
aI1
aI1
aI1
aI1
aI1
aI1
aI1
aI2
aI1
aI1
aI1
aI1
aI1
aI1
aI1
aI1
aI1
aI1
aI1
aI1
aI1
aI1
aI1
aI1
aI1
aI1
aI1
aI2
aI1
aI1
aI1
aI1
aI1
aI1
aI1
aI1
aI1
aI1
aI1
aI600
tRp19
sS'cache_value'
p20
I1
sS'max_window_size'
p21
I600
sS'cache_start'
p22
F1484876341.7239089
sbs(S'test'
S'pending'
tp23
g5
(g6
g7
NtRp24
(dp25
g10
F1484791527.8801401
sg11
F588.58780234058702
sg12
g13
((lp26
F1484791527.8801401
aF1484791740.6872711
aF1484791920.47803
aF1484792237.046361
aF1484792398.327282
aF1484792640.3180571
aF1484792820.3527169
aF1484793000.3038139
aF1484793180.2701881
aF1484793359.2369809
aF1484793540.3023241
aF1484793720.3282239
aF1484793900.3576009
aF1484794080.3637991
aF1484794260.3540621
aF1484794440.265661
aF1484794620.2842779
aF1484794800.295965
aF1484794980.320219
aF1484795160.316488
aF1484795340.331373
aF1484795520.357305
aF1484795700.2975321
aF1484795880.3203051
aF1484796060.3506269
aF1484796240.3438439
aF1484796420.3579259
aF1484796600.369945
aF1484796780.2834549
aF1484796960.2896719
aF1484797140.3337281
aF1484797320.3471129
aF1484797500.281143
aF1484797680.4391639
aF1484797860.3619671
aF1484798040.368176
aF1484798220.3084991
aF1484798400.321053
aF1484798580.3764651
aF1484798760.309628
aF1484798940.335669
aF1484799120.2864511
aF1484799300.3285379
aF1484799480.3621039
aF1484799660.3104751
aF1484799840.334259
aF1484800020.2997401
aF1484800200.566577
aF1484800380.4751401
aF1484800560.3332231
aF1484800740.402328
aF1484800920.354995
aF1484801100.415772
aF1484801280.3445699
aF1484801460.3560331
aF1484801640.3862579
aF1484801820.2820921
aF1484802000.3142509
aF1484802180.3149049
aF1484802360.345777
aF1484802540.29931
aF1484802720.2957611
aF1484802900.3170941
aF1484803080.3319371
aF1484803260.392899
aF1484803440.263268
aF1484803620.308244
aF1484803800.370002
aF1484803980.5149729
aF1484804160.3717439
aF1484804340.3348229
aF1484804520.375072
aF1484804700.2496359
aF1484804880.289325
aF1484805060.3180971
aF1484805240.333919
aF1484805420.579932
aF1484805600.51595
aF1484805780.3570609
aF1484805960.370115
aF1484806140.2557809
aF1484806320.2869999
aF1484806500.3284669
aF1484806680.3699591
aF1484806860.2923551
aF1484807040.333627
aF1484807220.2968121
aF1484807400.3287179
aF1484807580.370142
aF1484807760.295162
aF1484807940.328825
aF1484808120.3540919
aF1484808300.2903261
aF1484808480.5016241
aF1484808660.310878
aF1484808840.2932949
aF1484809020.33918
aF1484809200.4690411
aF1484809380.336729
aF1484809560.315192
aF1484809740.2686219
aF1484809920.383894
aF1484810100.2957389
aF1484810280.359225
aF1484810460.317909
aF1484810640.2789619
aF1484810820.3325419
aF1484811000.277709
aF1484811180.3230841
aF1484811360.28932
aF1484811540.3430481
aF1484811720.298151
aF1484811900.269201
aF1484812080.343658
aF1484812260.3941031
aF1484812440.3442791
aF1484812620.2778261
aF1484812800.478941
aF1484812980.3298631
aF1484813160.2826951
aF1484813340.2656629
aF1484813520.33182
aF1484813700.3235569
aF1484813880.3178351
aF1484814060.3340299
aF1484814240.3335099
aF1484814420.3251929
aF1484814600.3121741
aF1484814780.2730961
aF1484814960.336009
aF1484815140.3371389
aF1484815320.355866
aF1484815500.3339629
aF1484815680.31268
aF1484815860.310123
aF1484816040.394387
aF1484816220.535902
aF1484816400.7270651
aF1484816580.345017
aF1484816760.333621
aF1484816940.318063
aF1484817120.267041
aF1484817300.350477
aF1484817480.4130731
aF1484817660.346293
aF1484817840.2873349
aF1484818020.3813951
aF1484818200.354141
aF1484818380.322278
aF1484818560.330914
aF1484818740.279567
aF1484818920.3482471
aF1484819100.3343849
aF1484819280.350944
aF1484819460.327817
aF1484823240.6079719
aF1484823420.3312221
aF1484823600.5057609
aF1484823780.3158159
aF1484823960.301842
aF1484824140.395282
aF1484824320.383158
aF1484824500.3324649
aF1484824680.3239231
aF1484824860.329808
aF1484825040.3034439
aF1484825220.293479
aF1484825400.2929029
aF1484825580.3828161
aF1484825760.3726621
aF1484825940.3395491
aF1484826120.3473711
aF1484826300.345844
aF1484826480.3446741
aF1484826660.351073
aF1484826840.3491149
aF1484827020.373157
aF1484827200.4981949
aF1484827380.3313711
aF1484827560.4090669
aF1484827740.307591
aF1484827920.332154
aF1484828100.2970669
aF1484828280.460994
aF1484828460.3038521
aF1484828640.2937269
aF1484828820.3174689
aF1484829000.3417029
aF1484829180.3061719
aF1484829360.279793
aF1484829540.278415
aF1484829720.3790441
aF1484829900.3868239
aF1484830080.359273
aF1484830260.357348
aF1484830440.3557961
aF1484830620.3373971
aF1484830800.511888
aF1484830980.344748
aF1484831160.3446791
aF1484831340.3358719
aF1484831520.367758
aF1484831700.343452
aF1484831880.3672249
aF1484832060.3904359
aF1484832240.3634191
aF1484832420.3280139
aF1484832600.3510771
aF1484832780.402926
aF1484832960.4404199
aF1484833140.3555889
aF1484833320.5050321
aF1484833500.628382
aF1484833680.3596489
aF1484833860.3664429
aF1484834040.340374
aF1484834220.5411029
aF1484834400.5074329
aF1484834580.3600459
aF1484834760.385325
aF1484834940.3749261
aF1484835120.3570919
aF1484835300.357249
aF1484835480.380877
aF1484835660.495688
aF1484835840.3891499
aF1484836020.396116
aF1484836200.377739
aF1484836380.359689
aF1484836560.3662789
aF1484836740.3491869
aF1484836920.3564141
aF1484837100.3627739
aF1484837280.3688991
aF1484837460.3918591
aF1484837640.3565049
aF1484837820.3627391
aF1484838000.4917071
aF1484838180.336237
aF1484838360.304323
aF1484838540.3105509
aF1484838720.333699
aF1484838900.298789
aF1484839080.3969009
aF1484839260.361655
aF1484839440.3677709
aF1484839620.36553
aF1484839800.305815
aF1484839980.322562
aF1484840160.3037181
aF1484840340.310338
aF1484840520.367656
aF1484840700.3258021
aF1484840880.307982
aF1484841060.2808959
aF1484841240.3877599
aF1484841420.385885
aF1484841600.519568
aF1484841780.313714
aF1484841960.2973199
aF1484842140.4045291
aF1484842320.3532569
aF1484842500.4106691
aF1484842680.3764329
aF1484842860.3412919
aF1484843040.3890419
aF1484843220.3204429
aF1484843400.318706
aF1484843580.299871
aF1484843760.3746049
aF1484843940.381181
aF1484844120.3466489
aF1484844300.369952
aF1484844480.375334
aF1484844660.340436
aF1484844840.3127711
aF1484845020.3351331
aF1484845200.4732561
aF1484845380.333966
aF1484845560.3261371
aF1484845740.3324389
aF1484845920.4382329
aF1484846100.3049991
aF1484846280.311552
aF1484846460.3088861
aF1484846640.306926
aF1484846820.3221891
aF1484847000.4219511
aF1484847180.3029599
aF1484847360.30144
aF1484847540.382834
aF1484847720.2729599
aF1484847900.2964201
aF1484848080.312902
aF1484848260.286324
aF1484848440.3174331
aF1484848620.317378
aF1484848800.5239949
aF1484848980.2753129
aF1484849160.2837789
aF1484849340.290271
aF1484849520.2980289
aF1484849700.2892449
aF1484849880.312999
aF1484850060.31949
aF1484850240.3092549
aF1484850420.3334031
aF1484850600.3150139
aF1484850780.3230779
aF1484850960.3211589
aF1484851140.3190689
aF1484851320.350069
aF1484851500.3315451
aF1484851680.354686
aF1484851860.3356359
aF1484852040.3424749
aF1484852220.340152
aF1484852400.5309269
aF1484852580.3481841
aF1484852760.356297
aF1484852940.3377681
aF1484853120.3441651
aF1484853300.3344071
aF1484853480.416887
aF1484853660.3731229
aF1484853840.3708169
aF1484854020.3768511
aF1484854200.335649
aF1484854380.5259869
aF1484854560.3654411
aF1484854740.3552771
aF1484854920.3539519
aF1484855100.352124
aF1484855280.3431399
aF1484855460.3584981
aF1484855640.4569311
aF1484855820.331928
aF1484856000.4915869
aF1484856180.31934
aF1484856360.5711589
aF1484856540.574528
aF1484856720.51968
aF1484856900.53685
aF1484857080.468029
aF1484857260.4394021
aF1484857440.308928
aF1484857620.33601
aF1484857800.544071
aF1484857980.3275919
aF1484858160.3202021
aF1484858340.304256
aF1484858520.2828791
aF1484858700.657042
aF1484858880.3571401
aF1484859060.34693
aF1484859240.336935
aF1484859420.310811
aF1484859600.501863
aF1484859780.3349309
aF1484859960.3021979
aF1484860140.301928
aF1484860320.3169401
aF1484860500.2586801
aF1484860680.491416
aF1484860860.3229721
aF1484861040.296236
aF1484861220.3115661
aF1484861400.285207
aF1484861580.2581871
aF1484861760.366925
aF1484861940.3400271
aF1484862120.3462961
aF1484862300.4284041
aF1484862480.311641
aF1484862660.3016109
aF1484862840.2917581
aF1484863020.3243201
aF1484863200.657038
aF1484863380.4573369
aF1484863560.3078179
aF1484863740.289537
aF1484863920.322772
aF1484864100.279386
aF1484864280.2955749
aF1484864460.276834
aF1484864640.2838991
aF1484864820.3320439
aF1484865000.2800391
aF1484865180.3027551
aF1484865360.2841239
aF1484865540.2755401
aF1484865720.2897091
aF1484865900.313642
aF1484866080.294699
aF1484866260.2848721
aF1484866440.274929
aF1484866620.2977929
aF1484866800.5135889
aF1484866980.3127091
aF1484867160.3150351
aF1484867340.2880671
aF1484867520.3034551
aF1484867700.335927
aF1484867880.319587
aF1484868060.3347311
aF1484868240.3581729
aF1484868420.373224
aF1484868600.3550191
aF1484868780.380362
aF1484868960.3635459
aF1484869140.3620429
aF1484869320.2769561
aF1484869500.277437
aF1484869680.389303
aF1484869860.391257
aF1484870040.2754409
aF1484870220.4908061
aF1484870400.4964521
aF1484870580.3085699
aF1484870760.300173
aF1484870940.297708
aF1484871120.3054161
aF1484871300.320955
aF1484871480.302258
aF1484871660.333791
aF1484871840.3230951
aF1484872020.3290141
aF1484872200.3106821
aF1484872380.294493
aF1484872560.300725
aF1484872740.273814
aF1484872920.3719611
aF1484873100.312433
aF1484873280.2695839
aF1484873460.3938169
aF1484873640.3916709
aF1484873820.381839
aF1484874000.5327239
aF1484874180.316371
aF1484874360.3335831
aF1484874540.278836
aF1484874720.3750539
aF1484874900.3250091
aF1484875080.285418
aF1484875260.2772939
aF1484875440.3827071
aF1484875620.3330581
aF1484875800.315033
aF1484875980.3011429
aF1484876160.4554839
aI600
tRp27
sg16
I144
sg17
g13
((lp28
I2
aI1
aI5
aI5
aI2
aI1
aI1
aI1
aI1
aI2
aI1
aI1
aI1
aI1
aI1
aI1
aI1
aI1
aI2
aI1
aI1
aI1
aI1
aI1
aI1
aI1
aI1
aI1
aI1
aI1
aI1
aI1
aI1
aI1
aI1
aI1
aI1
aI1
aI2
aI1
aI1
aI1
aI1
aI1
aI1
aI1
aI1
aI1
aI1
aI1
aI1
aI1
aI1
aI1
aI1
aI1
aI1
aI1
aI2
aI1
aI1
aI1
aI1
aI1
aI1
aI1
aI1
aI1
aI1
aI1
aI1
aI1
aI1
aI1
aI1
aI1
aI1
aI1
aI2
aI1
aI1
aI1
aI1
aI1
aI1
aI1
aI1
aI1
aI1
aI1
aI1
aI1
aI1
aI1
aI1
aI1
aI1
aI1
aI2
aI1
aI1
aI1
aI1
aI1
aI1
aI1
aI1
aI1
aI1
aI1
aI1
aI1
aI1
aI1
aI1
aI1
aI1
aI1
aI2
aI1
aI1
aI1
aI1
aI1
aI1
aI1
aI1
aI1
aI1
aI1
aI1
aI1
aI1
aI1
aI1
aI1
aI1
aI1
aI2
aI1
aI1
aI1
aI1
aI1
aI1
aI1
aI1
aI1
aI1
aI1
aI1
aI1
aI1
aI1
aI1
aI1
aI1
aI1
aI2
aI1
aI1
aI1
aI1
aI1
aI1
aI1
aI1
aI1
aI1
aI1
aI1
aI1
aI1
aI1
aI1
aI1
aI1
aI1
aI2
aI1
aI1
aI1
aI1
aI1
aI1
aI1
aI1
aI1
aI1
aI1
aI1
aI1
aI1
aI1
aI1
aI1
aI1
aI1
aI2
aI1
aI1
aI1
aI1
aI1
aI1
aI1
aI1
aI1
aI1
aI1
aI1
aI1
aI1
aI1
aI1
aI1
aI1
aI1
aI2
aI1
aI1
aI1
aI1
aI1
aI1
aI1
aI1
aI1
aI1
aI1
aI1
aI1
aI1
aI1
aI1
aI1
aI1
aI1
aI2
aI1
aI1
aI1
aI1
aI1
aI1
aI1
aI1
aI1
aI1
aI1
aI1
aI1
aI1
aI1
aI1
aI1
aI1
aI1
aI2
aI1
aI1
aI1
aI1
aI1
aI1
aI1
aI1
aI1
aI1
aI1
aI1
aI1
aI1
aI1
aI1
aI1
aI1
aI1
aI2
aI1
aI1
aI1
aI1
aI1
aI1
aI1
aI1
aI1
aI1
aI1
aI1
aI1
aI1
aI1
aI1
aI1
aI1
aI1
aI2
aI1
aI1
aI1
aI1
aI1
aI1
aI1
aI1
aI1
aI1
aI1
aI1
aI1
aI1
aI1
aI1
aI1
aI1
aI1
aI2
aI1
aI1
aI1
aI1
aI1
aI1
aI1
aI1
aI1
aI1
aI1
aI1
aI1
aI1
aI1
aI1
aI1
aI1
aI1
aI2
aI1
aI1
aI1
aI1
aI1
aI1
aI1
aI1
aI1
aI1
aI1
aI1
aI1
aI1
aI1
aI1
aI1
aI1
aI1
aI2
aI1
aI1
aI1
aI1
aI1
aI1
aI1
aI1
aI1
aI1
aI1
aI1
aI1
aI1
aI1
aI1
aI1
aI1
aI1
aI2
aI1
aI1
aI1
aI1
aI1
aI1
aI1
aI1
aI1
aI1
aI1
aI1
aI1
aI1
aI1
aI1
aI1
aI1
aI1
aI2
aI1
aI1
aI1
aI1
aI1
aI1
aI1
aI1
aI1
aI1
aI1
aI1
aI1
aI1
aI1
aI1
aI1
aI1
aI1
aI2
aI1
aI1
aI1
aI1
aI1
aI1
aI1
aI1
aI1
aI1
aI1
aI1
aI1
aI1
aI1
aI1
aI1
aI1
aI1
aI2
aI1
aI1
aI1
aI1
aI1
aI1
aI1
aI1
aI1
aI1
aI1
aI600
tRp29
sg20
I1
sg21
I600
sg22
F1484876340.3220639
sbs(Vtest
p30
S'retry'
p31
tp32
g5
(g6
g7
NtRp33
(dp34
g10
F1484823240.982666
sg11
F368.35792361034288
sg12
g13
((lp35
F1484823240.982666
aF1484823420.714977
aF1484823600.889801
aF1484823780.6996119
aF1484823960.7440829
aF1484824140.679039
aF1484824320.6833301
aF1484824500.7747309
aF1484824680.741128
aF1484824860.696892
aF1484825040.5955069
aF1484825220.685653
aF1484825400.593255
aF1484825580.7999129
aF1484825760.772819
aF1484825940.7483261
aF1484826120.656029
aF1484826300.6463399
aF1484826480.7450321
aF1484826660.7681611
aF1484826840.6584189
aF1484827020.781884
aF1484827200.948375
aF1484827380.7401271
aF1484827560.826088
aF1484827740.8664291
aF1484827920.7408471
aF1484828100.680819
aF1484828280.8980589
aF1484828460.704355
aF1484828640.685977
aF1484828820.693378
aF1484829000.817106
aF1484829180.706614
aF1484829360.5885279
aF1484829540.8288829
aF1484829720.679497
aF1484829900.862262
aF1484830080.726377
aF1484830260.7578149
aF1484830440.7479031
aF1484830620.7212501
aF1484830800.8286669
aF1484830980.761791
aF1484831160.7117341
aF1484831340.761374
aF1484831520.8431561
aF1484831700.835597
aF1484831880.842761
aF1484832060.8577011
aF1484832240.8475621
aF1484832420.745286
aF1484832600.6431589
aF1484832780.907932
aF1484832960.8741291
aF1484833140.7478919
aF1484833320.93045
aF1484833501.0704761
aF1484833680.7518749
aF1484833860.641922
aF1484834040.6664269
aF1484834220.9250591
aF1484834400.957799
aF1484834580.735528
aF1484834760.85255
aF1484834940.8004701
aF1484835120.7824581
aF1484835300.7910891
aF1484835480.7894681
aF1484835660.9712291
aF1484835840.7978411
aF1484836020.863193
aF1484836200.7781169
aF1484836380.768332
aF1484836560.741586
aF1484836740.741811
aF1484836920.740129
aF1484837100.763165
aF1484837280.760962
aF1484837460.875587
aF1484837640.748544
aF1484837820.7298751
aF1484838000.937067
aF1484838180.7781971
aF1484838360.696384
aF1484838540.702656
aF1484838720.917809
aF1484838900.699136
aF1484839080.8722899
aF1484839260.637033
aF1484839440.7598619
aF1484839620.7576039
aF1484839800.6645811
aF1484839980.6199729
aF1484840160.6125
aF1484840340.7940979
aF1484840520.7937109
aF1484840700.734489
aF1484840880.725137
aF1484841060.68137
aF1484841240.7048891
aF1484841420.8529429
aF1484841600.812851
aF1484841780.7475221
aF1484841960.5893159
aF1484842140.8882501
aF1484842320.7620361
aF1484842500.797684
aF1484842680.8602741
aF1484842860.7582619
aF1484843040.7977901
aF1484843220.9129851
aF1484843400.602423
aF1484843580.6836319
aF1484843760.7667291
aF1484843940.6482451
aF1484844120.755306
aF1484844300.762187
aF1484844480.8341789
aF1484844660.615845
aF1484844840.721576
aF1484845020.735625
aF1484845200.9174421
aF1484845380.75106
aF1484845560.609776
aF1484845740.7252691
aF1484845920.922008
aF1484846100.7223439
aF1484846280.7618761
aF1484846460.7010031
aF1484846640.698993
aF1484846820.622525
aF1484847000.9141099
aF1484847180.5783629
aF1484847360.84359
aF1484847540.816617
aF1484847720.5566931
aF1484847900.738575
aF1484848080.7467411
aF1484848260.586935
aF1484848440.6844749
aF1484848620.709537
aF1484848800.983882
aF1484848980.5590751
aF1484849160.709305
aF1484849340.607439
aF1484849520.5984941
aF1484849700.6230299
aF1484849880.7217431
aF1484850060.6032629
aF1484850240.601397
aF1484850420.808943
aF1484850600.740515
aF1484850780.723592
aF1484850960.704957
aF1484851140.6278491
aF1484851320.8339069
aF1484851500.6236269
aF1484851680.8133481
aF1484851860.6448369
aF1484852040.73439
aF1484852220.782203
aF1484852400.9228599
aF1484852580.7486279
aF1484852760.7733231
aF1484852940.8964911
aF1484853120.744488
aF1484853300.6680679
aF1484853480.867269
aF1484853660.6735711
aF1484853840.7547579
aF1484854020.8107369
aF1484854200.7699649
aF1484854380.9763589
aF1484854560.7575109
aF1484854740.7306759
aF1484854920.7543769
aF1484855100.7442901
aF1484855280.7441599
aF1484855460.7589321
aF1484855640.8322909
aF1484855820.7323799
aF1484856000.931535
aF1484856180.7208481
aF1484856361.225666
aF1484856541.1589479
aF1484856721.155333
aF1484856901.287564
aF1484857080.8535759
aF1484857260.865833
aF1484857440.725878
aF1484857620.7280481
aF1484857800.919395
aF1484857980.76982
aF1484858160.729706
aF1484858340.7297981
aF1484858520.575083
aF1484858701.1168971
aF1484858880.7244761
aF1484859060.7557449
aF1484859240.712338
aF1484859420.7196701
aF1484859600.911149
aF1484859780.6353149
aF1484859960.610981
aF1484860140.7108519
aF1484860320.5679929
aF1484860500.5675659
aF1484860680.95046
aF1484860860.7151639
aF1484861040.61338
aF1484861220.7289059
aF1484861400.594017
aF1484861580.6669359
aF1484861760.817317
aF1484861940.6401739
aF1484862120.938544
aF1484862300.8371091
aF1484862480.5954809
aF1484862660.6521111
aF1484862840.692158
aF1484863020.5914381
aF1484863201.174504
aF1484863380.8912461
aF1484863560.674989
aF1484863740.681664
aF1484863920.7065361
aF1484864100.6880569
aF1484864280.7042251
aF1484864460.677263
aF1484864640.575989
aF1484864820.8157721
aF1484865000.597049
aF1484865180.6700521
aF1484865360.5595601
aF1484865540.717664
aF1484865720.6902189
aF1484865900.6974151
aF1484866080.7207191
aF1484866260.6019659
aF1484866440.7005019
aF1484866620.6983221
aF1484866800.888948
aF1484866980.6964719
aF1484867160.6237161
aF1484867340.6968069
aF1484867520.695646
aF1484867700.836642
aF1484867880.728291
aF1484868060.635108
aF1484868240.6334791
aF1484868420.7820351
aF1484868600.7553401
aF1484868780.689194
aF1484868960.7638741
aF1484869140.754123
aF1484869320.5607221
aF1484869500.6778941
aF1484869680.7654951
aF1484869860.7583129
aF1484870040.6759441
aF1484870220.891803
aF1484870400.8161571
aF1484870580.675688
aF1484870760.692416
aF1484870940.6147339
aF1484871120.722528
aF1484871300.7883229
aF1484871480.694366
aF1484871660.7344091
aF1484871840.706789
aF1484872020.7043619
aF1484872200.7193351
aF1484872380.6031671
aF1484872560.6178479
aF1484872740.6741991
aF1484872920.8057179
aF1484873100.61286
aF1484873280.7203121
aF1484873460.7941339
aF1484873640.8587439
aF1484873820.8489151
aF1484874000.9337981
aF1484874180.7418499
aF1484874360.642441
aF1484874540.7302489
aF1484874720.6586699
aF1484874900.642189
aF1484875080.7025659
aF1484875260.669394
aF1484875440.699858
aF1484875620.61672
aF1484875800.7153561
aF1484875980.684865
aF1484876160.9643159
aI600
tRp36
sg16
I144
sg17
g13
((lp37
I3
aI3
aI3
aI6
aI3
aI3
aI3
aI3
aI3
aI3
aI3
aI3
aI3
aI3
aI3
aI3
aI3
aI3
aI3
aI3
aI3
aI3
aI3
aI6
aI3
aI3
aI3
aI3
aI3
aI3
aI3
aI3
aI3
aI3
aI3
aI3
aI3
aI3
aI3
aI3
aI3
aI3
aI3
aI6
aI3
aI3
aI3
aI3
aI3
aI3
aI3
aI3
aI3
aI3
aI3
aI3
aI3
aI3
aI3
aI3
aI3
aI3
aI3
aI6
aI3
aI3
aI3
aI3
aI3
aI3
aI3
aI3
aI3
aI3
aI3
aI3
aI3
aI3
aI3
aI3
aI3
aI3
aI3
aI6
aI3
aI3
aI3
aI3
aI3
aI3
aI3
aI3
aI3
aI3
aI3
aI3
aI3
aI3
aI3
aI3
aI3
aI3
aI3
aI6
aI3
aI3
aI3
aI3
aI3
aI3
aI3
aI3
aI3
aI3
aI3
aI3
aI3
aI3
aI3
aI3
aI3
aI3
aI3
aI6
aI3
aI3
aI3
aI3
aI3
aI3
aI3
aI3
aI3
aI3
aI3
aI3
aI3
aI3
aI3
aI3
aI3
aI3
aI3
aI6
aI3
aI3
aI3
aI3
aI3
aI3
aI3
aI3
aI3
aI3
aI3
aI3
aI3
aI3
aI3
aI3
aI3
aI3
aI3
aI6
aI3
aI3
aI3
aI3
aI3
aI3
aI3
aI3
aI3
aI3
aI3
aI3
aI3
aI3
aI3
aI3
aI3
aI3
aI3
aI6
aI3
aI3
aI3
aI3
aI3
aI3
aI3
aI3
aI3
aI3
aI3
aI3
aI3
aI3
aI3
aI3
aI3
aI3
aI3
aI6
aI3
aI3
aI3
aI3
aI3
aI3
aI3
aI3
aI3
aI3
aI3
aI3
aI3
aI3
aI3
aI3
aI3
aI3
aI3
aI6
aI3
aI3
aI3
aI3
aI3
aI3
aI3
aI3
aI3
aI3
aI3
aI3
aI3
aI3
aI3
aI3
aI3
aI3
aI3
aI6
aI3
aI3
aI3
aI3
aI3
aI3
aI3
aI3
aI3
aI3
aI3
aI3
aI3
aI3
aI3
aI3
aI3
aI3
aI3
aI6
aI3
aI3
aI3
aI3
aI3
aI3
aI3
aI3
aI3
aI3
aI3
aI3
aI3
aI3
aI3
aI3
aI3
aI3
aI3
aI6
aI3
aI3
aI3
aI3
aI3
aI3
aI3
aI3
aI3
aI3
aI3
aI600
tRp38
sg20
I3
sg21
I600
sg22
F1484876340.6308351
sbs(Vtest
S'success'
tp39
g5
(g6
g7
NtRp40
(dp41
g10
F1484791528.330436
sg11
F588.58467525078186
sg12
g13
((lp42
F1484791528.330436
aF1484791741.26388
aF1484791920.9961629
aF1484792237.4801719
aF1484792398.594425
aF1484792640.7362831
aF1484792820.761632
aF1484793000.7634361
aF1484793180.712749
aF1484793359.7042501
aF1484793540.728967
aF1484793720.8207221
aF1484793901.098012
aF1484794080.8317561
aF1484794260.721796
aF1484794440.716625
aF1484794620.710227
aF1484794800.7552011
aF1484794980.64574
aF1484795160.7091291
aF1484795340.723855
aF1484795520.7081361
aF1484795700.7233851
aF1484795880.7469931
aF1484796060.768132
aF1484796240.7613931
aF1484796420.726083
aF1484796600.7375319
aF1484796780.684139
aF1484796960.8156209
aF1484797140.7596619
aF1484797320.739562
aF1484797500.7152851
aF1484797680.875479
aF1484797860.7962589
aF1484798040.7772579
aF1484798220.751545
aF1484798400.7887909
aF1484798580.735647
aF1484798760.6268411
aF1484798940.6695061
aF1484799120.737354
aF1484799300.7635009
aF1484799480.77966
aF1484799660.7309971
aF1484799840.75176
aF1484800020.7257719
aF1484800201.0508931
aF1484800380.884378
aF1484800560.7762699
aF1484800740.853303
aF1484800920.7390709
aF1484801100.8917601
aF1484801280.779115
aF1484801460.765142
aF1484801640.8037429
aF1484801820.7335329
aF1484802000.6734209
aF1484802180.740731
aF1484802360.771486
aF1484802540.6918631
aF1484802720.788183
aF1484802900.7513659
aF1484803080.7577281
aF1484803260.7770751
aF1484803440.730684
aF1484803620.6755781
aF1484803800.7874219
aF1484803980.9830129
aF1484804160.9442561
aF1484804340.769017
aF1484804520.784744
aF1484804700.717324
aF1484804880.7403989
aF1484805060.7358711
aF1484805240.718446
aF1484805421.0390899
aF1484805600.9836979
aF1484805780.8253231
aF1484805960.7377059
aF1484806140.7006741
aF1484806320.712863
aF1484806500.796803
aF1484806680.770648
aF1484806860.7432971
aF1484807040.667558
aF1484807220.722652
aF1484807400.7545769
aF1484807580.7624879
aF1484807761.0796289
aF1484807940.696234
aF1484808120.7716279
aF1484808300.6745019
aF1484808480.977643
aF1484808660.6614981
aF1484808840.7275829
aF1484809020.723459
aF1484809200.904855
aF1484809380.6875861
aF1484809560.7577839
aF1484809740.711659
aF1484809920.8098791
aF1484810100.772423
aF1484810280.7517049
aF1484810460.735352
aF1484810640.6129031
aF1484810820.7082829
aF1484811000.7960219
aF1484811180.7572329
aF1484811360.6484511
aF1484811540.743835
aF1484811720.682478
aF1484811900.720212
aF1484812080.7864239
aF1484812260.8700371
aF1484812440.745378
aF1484812620.720443
aF1484812800.8464389
aF1484812980.764015
aF1484813160.7007501
aF1484813340.7166729
aF1484813520.7660151
aF1484813700.7993209
aF1484813880.7437029
aF1484814060.751739
aF1484814240.7428811
aF1484814420.7178271
aF1484814600.721478
aF1484814780.715801
aF1484814960.745028
aF1484815140.754611
aF1484815320.8235559
aF1484815500.7183061
aF1484815680.7219839
aF1484815860.7860579
aF1484816040.861793
aF1484816220.944917
aF1484816401.21962
aF1484816580.6624329
aF1484816760.7260101
aF1484816940.6855431
aF1484817120.693541
aF1484817300.793654
aF1484817480.8305321
aF1484817660.7389469
aF1484817840.738842
aF1484818020.790673
aF1484818200.7720211
aF1484818380.806524
aF1484818560.648176
aF1484818740.7221601
aF1484818920.707654
aF1484819100.7103159
aF1484819280.7434061
aF1484819460.736752
aI600
tRp43
sg16
I144
sg17
g13
((lp44
I2
aI1
aI5
aI5
aI2
aI1
aI1
aI1
aI1
aI2
aI1
aI1
aI1
aI1
aI1
aI1
aI1
aI1
aI2
aI1
aI1
aI1
aI1
aI1
aI1
aI1
aI1
aI1
aI1
aI1
aI1
aI1
aI1
aI1
aI1
aI1
aI1
aI1
aI2
aI1
aI1
aI1
aI1
aI1
aI1
aI1
aI1
aI1
aI1
aI1
aI1
aI1
aI1
aI1
aI1
aI1
aI1
aI1
aI2
aI1
aI1
aI1
aI1
aI1
aI1
aI1
aI1
aI1
aI1
aI1
aI1
aI1
aI1
aI1
aI1
aI1
aI1
aI1
aI2
aI1
aI1
aI1
aI1
aI1
aI1
aI1
aI1
aI1
aI1
aI1
aI1
aI1
aI1
aI1
aI1
aI1
aI1
aI1
aI2
aI1
aI1
aI1
aI1
aI1
aI1
aI1
aI1
aI1
aI1
aI1
aI1
aI1
aI1
aI1
aI1
aI1
aI1
aI1
aI2
aI1
aI1
aI1
aI1
aI1
aI1
aI1
aI1
aI1
aI1
aI1
aI1
aI1
aI1
aI1
aI1
aI1
aI1
aI1
aI2
aI1
aI1
aI1
aI1
aI1
aI1
aI1
aI1
aI1
aI1
aI1
aI1
aI1
aI1
aI1
aI1
aI600
tRp45
sg20
I0
sg21
I600
sg22
Nsbs.