(dp1
(Vtoutiao
S'retry'
p2
tp3
ccopy_reg
_reconstructor
p4
(cpyspider.libs.counter
TimebaseAverageWindowCounter
p5
c__builtin__
object
p6
NtRp7
(dp8
S'_first_data_time'
p9
F1484524813.5314381
sS'window_size'
p10
F255.39068501359887
sS'times'
p11
ccollections
deque
p12
((lp13
F1484524813.5314381
aF1484559102.0033741
aI600
tRp14
sS'window_interval'
p15
I144
sS'values'
p16
g12
((lp17
I2
aI2
aI600
tRp18
sS'cache_value'
p19
I0
sS'max_window_size'
p20
I600
sS'cache_start'
p21
Nsbs(S'chinanews'
S'pending'
p22
tp23
g4
(g5
g6
NtRp24
(dp25
g9
F1484145984.7001619
sg10
I600
sg11
g12
((lp26
F1484524800.6408861
aI600
tRp27
sg15
I144
sg16
g12
((lp28
I1
aI600
tRp29
sg19
I0
sg20
I600
sg21
Nsbs(Vchinanews
S'success'
p30
tp31
g4
(g5
g6
NtRp32
(dp33
g9
F1484145984.997592
sg10
I600
sg11
g12
((lp34
F1484524803.9204581
aI600
tRp35
sg15
I144
sg16
g12
((lp36
I1
aI600
tRp37
sg19
I0
sg20
I600
sg21
Nsbs(Vskykiwichina
g22
tp38
g4
(g5
g6
NtRp39
(dp40
g9
F1484524800.8998921
sg10
F255.47840265929699
sg11
g12
((lp41
F1484524800.8998921
aI600
tRp42
sg15
I144
sg16
g12
((lp43
I45
aI600
tRp44
sg19
I0
sg20
I600
sg21
Nsbs(S'nbr'
g22
tp45
g4
(g5
g6
NtRp46
(dp47
g9
F1484150421.5329599
sg10
I600
sg11
g12
((lp48
F1484481600.1503651
aI600
tRp49
sg15
I144
sg16
g12
((lp50
I6
aI600
tRp51
sg19
I0
sg20
I600
sg21
Nsbs(Vchinesenzherald
g30
tp52
g4
(g5
g6
NtRp53
(dp54
g9
F1484146822.7393241
sg10
I600
sg11
g12
((lp55
F1484524804.5127461
aF1484525925.496326
aF1484559101.5861609
aI600
tRp56
sg15
I144
sg16
g12
((lp57
I12
aI12
aI7
aI600
tRp58
sg19
I0
sg20
I600
sg21
Nsbs(S'etnet'
g22
tp59
g4
(g5
g6
NtRp60
(dp61
g9
F1484147121.6760459
sg10
I600
sg11
g12
((lp62
F1484481600.2033081
aF1484524800.895869
aI600
tRp63
sg15
I144
sg16
g12
((lp64
I1
aI8
aI600
tRp65
sg19
I0
sg20
I600
sg21
Nsbs(S'chinesenzherald'
g22
tp66
g4
(g5
g6
NtRp67
(dp68
g9
F1484146822.4714921
sg10
I600
sg11
g12
((lp69
F1484524800.213392
aF1484525947.839643
aI600
tRp70
sg15
I144
sg16
g12
((lp71
I30
aI7
aI600
tRp72
sg19
I0
sg20
I600
sg21
Nsbs(Vetnet
g30
tp73
g4
(g5
g6
NtRp74
(dp75
g9
F1484147170.326442
sg10
I600
sg11
g12
((lp76
F1484481602.3756189
aF1484524803.3052599
aI600
tRp77
sg15
I144
sg16
g12
((lp78
I1
aI1
aI600
tRp79
sg19
I0
sg20
I600
sg21
Nsbs(S'aucklandcouncil'
g22
tp80
g4
(g5
g6
NtRp81
(dp82
g9
F1484144792.185127
sg10
I600
sg11
g12
((lp83
F1484524800.3318679
aI600
tRp84
sg15
I144
sg16
g12
((lp85
I8
aI600
tRp86
sg19
I0
sg20
I600
sg21
Nsbs(Vjrj
g30
tp87
g4
(g5
g6
NtRp88
(dp89
g9
F1484149228.9974949
sg10
I600
sg11
g12
((lp90
F1484481602.5623541
aF1484524803.610034
aF1484525925.384587
aF1484559094.7379661
aI600
tRp91
sg15
I144
sg16
g12
((lp92
I47
aI9
aI6
aI5
aI600
tRp93
sg19
I0
sg20
I600
sg21
Nsbs(S'jiemian'
g22
tp94
g4
(g5
g6
NtRp95
(dp96
g9
F1484148468.7361159
sg10
I600
sg11
g12
((lp97
F1484524800.185333
aI600
tRp98
sg15
I144
sg16
g12
((lp99
I50
aI600
tRp100
sg19
I0
sg20
I600
sg21
Nsbs(S'jrj'
g22
tp101
g4
(g5
g6
NtRp102
(dp103
g9
F1484148790.2753639
sg10
I600
sg11
g12
((lp104
F1484481600.2191451
aF1484524800.5195761
aI600
tRp105
sg15
I144
sg16
g12
((lp106
I47
aI39
aI600
tRp107
sg19
I0
sg20
I600
sg21
Nsbs(Vskykiwichina
g30
tp108
g4
(g5
g6
NtRp109
(dp110
g9
F1484524813.100301
sg10
F255.3936775409513
sg11
g12
((lp111
F1484524813.100301
aF1484525924.3781469
aF1484559098.5158329
aI600
tRp112
sg15
I144
sg16
g12
((lp113
I3
aI3
aI3
aI600
tRp114
sg19
I0
sg20
I600
sg21
Nsbs(Vnbr
g30
tp115
g4
(g5
g6
NtRp116
(dp117
g9
F1484150421.827909
sg10
I600
sg11
g12
((lp118
F1484481636.58148
aI600
tRp119
sg15
I144
sg16
g12
((lp120
I6
aI600
tRp121
sg19
I0
sg20
I600
sg21
Nsbs(S'kannz'
g22
tp122
g4
(g5
g6
NtRp123
(dp124
g9
F1484150416.3973191
sg10
I600
sg11
g12
((lp125
F1484524800.1990499
aI600
tRp126
sg15
I144
sg16
g12
((lp127
I11
aI600
tRp128
sg19
I0
sg20
I600
sg21
Nsbs(Vtoutiao
g22
tp129
g4
(g5
g6
NtRp130
(dp131
g9
F1484524800.8888719
sg10
F255.4784806602531
sg11
g12
((lp132
F1484524800.8888719
aI600
tRp133
sg15
I144
sg16
g12
((lp134
I2
aI600
tRp135
sg19
I0
sg20
I600
sg21
Nsbs(Vchinesenzherald
g2
tp136
g4
(g5
g6
NtRp137
(dp138
g9
F1484524813.5699091
sg10
F255.39041741523477
sg11
g12
((lp139
F1484524813.5699091
aI600
tRp140
sg15
I144
sg16
g12
((lp141
I2
aI600
tRp142
sg19
I0
sg20
I600
sg21
Nsbs(S'gold678'
g22
tp143
g4
(g5
g6
NtRp144
(dp145
g9
F1484148018.2330511
sg10
I600
sg11
g12
((lp146
F1484481600.2098429
aF1484524800.6274559
aI600
tRp147
sg15
I144
sg16
g12
((lp148
I1
aI1
aI600
tRp149
sg19
I0
sg20
I600
sg21
Nsbs(Vkannz
g30
tp150
g4
(g5
g6
NtRp151
(dp152
g9
F1484150416.59958
sg10
I600
sg11
g12
((lp153
F1484524802.90185
aF1484525925.6960621
aI600
tRp154
sg15
I144
sg16
g12
((lp155
I10
aI1
aI600
tRp156
sg19
I0
sg20
I600
sg21
Nsbs(Vrenmin
g30
tp157
g4
(g5
g6
NtRp158
(dp159
g9
F1484182299.0745151
sg10
I600
sg11
g12
((lp160
F1484524802.707217
aI600
tRp161
sg15
I144
sg16
g12
((lp162
I1
aI600
tRp163
sg19
I0
sg20
I600
sg21
Nsbs(Vaucklandcouncil
g30
tp164
g4
(g5
g6
NtRp165
(dp166
g9
F1484144792.5874121
sg10
I600
sg11
g12
((lp167
F1484524803.5070269
aF1484525925.7024829
aI600
tRp168
sg15
I144
sg16
g12
((lp169
I7
aI1
aI600
tRp170
sg19
I0
sg20
I600
sg21
Nsbs(Vchinaqw
g30
tp171
g4
(g5
g6
NtRp172
(dp173
g9
F1484146336.6927381
sg10
I600
sg11
g12
((lp174
F1484481601.1523681
aF1484524801.6931219
aI600
tRp175
sg15
I144
sg16
g12
((lp176
I1
aI1
aI600
tRp177
sg19
I0
sg20
I600
sg21
Nsbs(Vjiemian
g30
tp178
g4
(g5
g6
NtRp179
(dp180
g9
F1484148482.1017859
sg10
I600
sg11
g12
((lp181
F1484524802.497261
aF1484525925.7063019
aF1484559094.99687
aI600
tRp182
sg15
I144
sg16
g12
((lp183
I10
aI6
aI4
aI600
tRp184
sg19
I0
sg20
I600
sg21
Nsbs(Vetnet
g2
tp185
g4
(g5
g6
NtRp186
(dp187
g9
F1484147173.327445
sg10
I600
sg11
g12
((lp188
F1484524813.490613
aF1484525925.7350099
aF1484559098.716377
aI600
tRp189
sg15
I144
sg16
g12
((lp190
I6
aI1
aI2
aI600
tRp191
sg19
I0
sg20
I600
sg21
Nsbs(S'fmprc'
g22
tp192
g4
(g5
g6
NtRp193
(dp194
g9
F1484147416.615356
sg10
I600
sg11
g12
((lp195
F1484481600.1541021
aF1484524800.3382909
aI600
tRp196
sg15
I144
sg16
g12
((lp197
I1
aI1
aI600
tRp198
sg19
I0
sg20
I600
sg21
Nsbs(S'weibo'
g22
tp199
g4
(g5
g6
NtRp200
(dp201
g9
F1484184891.7518871
sg10
I600
sg11
g12
((lp202
F1484478000.1338019
aF1484485200.1617141
aF1484492400.117285
aF1484499600.1246221
aF1484506800.1239581
aF1484514000.1356249
aF1484521200.1429501
aI600
tRp203
sg15
I144
sg16
g12
((lp204
I10
aI10
aI10
aI10
aI10
aI10
aI10
aI600
tRp205
sg19
I0
sg20
I600
sg21
Nsbs(Vgold678
g30
tp206
g4
(g5
g6
NtRp207
(dp208
g9
F1484148018.5269411
sg10
I600
sg11
g12
((lp209
F1484481602.379072
aF1484524802.9048009
aI600
tRp210
sg15
I144
sg16
g12
((lp211
I1
aI1
aI600
tRp212
sg19
I0
sg20
I600
sg21
Nsbs(Vfmprc
g30
tp213
g4
(g5
g6
NtRp214
(dp215
g9
F1484147416.918535
sg10
I600
sg11
g12
((lp216
F1484481608.908036
aF1484524814.027652
aI600
tRp217
sg15
I144
sg16
g12
((lp218
I1
aI1
aI600
tRp219
sg19
I0
sg20
I600
sg21
Nsbs(S'renmin'
g22
tp220
g4
(g5
g6
NtRp221
(dp222
g9
F1484182298.787523
sg10
I600
sg11
g12
((lp223
F1484524800.904165
aI600
tRp224
sg15
I144
sg16
g12
((lp225
I1
aI600
tRp226
sg19
I0
sg20
I600
sg21
Nsbs(Vweibo
g30
tp227
g4
(g5
g6
NtRp228
(dp229
g9
F1484184892.0291181
sg10
I600
sg11
g12
((lp230
F1484478001.1496589
aF1484485201.7777901
aF1484492401.4145181
aF1484499602.336751
aF1484506801.4316111
aF1484514001.745702
aF1484521201.964927
aI600
tRp231
sg15
I144
sg16
g12
((lp232
I10
aI10
aI10
aI10
aI10
aI10
aI10
aI600
tRp233
sg19
I0
sg20
I600
sg21
Nsbs(S'chinaqw'
g22
tp234
g4
(g5
g6
NtRp235
(dp236
g9
F1484146336.5012889
sg10
I600
sg11
g12
((lp237
F1484481600.1470289
aF1484524800.279953
aI600
tRp238
sg15
I144
sg16
g12
((lp239
I1
aI1
aI600
tRp240
sg19
I0
sg20
I600
sg21
Nsbs.