(dp1
(Vtoutiao
S'retry'
tp2
ccopy_reg
_reconstructor
p3
(cpyspider.libs.counter
TimebaseAverageWindowCounter
p4
c__builtin__
object
p5
NtRp6
(dp7
S'_first_data_time'
p8
F1481796434.4740591
sS'window_size'
p9
I600
sS'times'
p10
ccollections
deque
p11
((lp12
F1481798794.2989459
aF1481799255.820394
aF1481799404.0735011
aF1481799548.8459589
aF1481800035.5528319
aF1481800216.3483031
aF1481800399.2891369
aF1481800778.7271259
aF1481803190.0508649
aF1481803727.31618
aF1481803989.9981401
aF1481804245.2873449
aF1481804459.584826
aF1481867403.674439
aF1481867555.0925291
aF1481871076.410239
aI600
tRp13
sS'window_interval'
p14
I144
sS'values'
p15
g11
((lp16
I2
aI2
aI32
aI3
aI1
aI1
aI6
aI5
aI4
aI1
aI3
aI1
aI4
aI73
aI3
aI38
aI600
tRp17
sS'cache_value'
p18
I0
sS'max_window_size'
p19
I600
sS'cache_start'
p20
Nsbs(S'chinaembassy'
S'pending'
p21
tp22
g3
(g4
g5
NtRp23
(dp24
g8
F1481879410.321985
sg9
F27.942210415999096
sg10
g11
((lp25
F1481879410.321985
aI600
tRp26
sg14
I144
sg15
g11
((lp27
I43
aI600
tRp28
sg18
I0
sg19
I600
sg20
Nsbs(Vchinaembassy
p29
S'retry'
p30
tp31
g3
(g4
g5
NtRp32
(dp33
g8
F1481879435.3646541
sg9
F27.768302909202045
sg10
g11
((lp34
F1481879435.3646541
aF1481883087.3341191
aI600
tRp35
sg14
I144
sg15
g11
((lp36
I8
aI4
aI600
tRp37
sg18
I0
sg19
I600
sg20
Nsbs(Vwaijiao
S'success'
p38
tp39
g3
(g4
g5
NtRp40
(dp41
g8
F1481788097.0780611
sg9
I600
sg10
g11
((lp42
F1481799523.874171
aI600
tRp43
sg14
I144
sg15
g11
((lp44
I1
aI600
tRp45
sg18
I0
sg19
I600
sg20
Nsbs(S'skykiwichina'
g21
tp46
g3
(g4
g5
NtRp47
(dp48
g8
F1481871200.3151939
sg9
F84.95614556305938
sg10
g11
((lp49
F1481871200.3151939
aI600
tRp50
sg14
I144
sg15
g11
((lp51
I92
aI600
tRp52
sg18
I1
sg19
I600
sg20
F1481883327.8633029
sbs(Vchinaconsulate
p53
S'success'
p54
tp55
g3
(g4
g5
NtRp56
(dp57
g8
F1481880008.9089429
sg9
F23.785356764992077
sg10
g11
((lp58
F1481880008.9089429
aI600
tRp59
sg14
I144
sg15
g11
((lp60
I39
aI600
tRp61
sg18
I0
sg19
I600
sg20
Nsbs(Vtoutiao
S'failed'
tp62
g3
(g4
g5
NtRp63
(dp64
g8
F1481822415.8762159
sg9
F423.73697238167125
sg10
g11
((lp65
F1481822415.8762159
aF1481824790.4367051
aF1481824944.5012331
aF1481825377.2621591
aF1481825763.4594669
aF1481825948.5859449
aF1481826141.562711
aF1481858867.025835
aF1481859066.1863439
aF1481859232.849344
aF1481859413.2140081
aI600
tRp66
sg14
I144
sg15
g11
((lp67
I1
aI3
aI1
aI1
aI3
aI2
aI3
aI6
aI3
aI3
aI2
aI600
tRp68
sg18
I0
sg19
I600
sg20
Nsbs(S'waijiao'
S'pending'
p69
tp70
g3
(g4
g5
NtRp71
(dp72
g8
F1481788096.7279561
sg9
I600
sg10
g11
((lp73
F1481799387.472759
aI600
tRp74
sg14
I144
sg15
g11
((lp75
I1
aI600
tRp76
sg18
I0
sg19
I600
sg20
Nsbs(Vskykiwichina
g30
tp77
g3
(g4
g5
NtRp78
(dp79
g8
F1481871228.2136869
sg9
F84.762405930293937
sg10
g11
((lp80
F1481871228.2136869
aI600
tRp81
sg14
I144
sg15
g11
((lp82
I12
aI600
tRp83
sg18
I6
sg19
I600
sg20
F1481883326.661073
sbs(Vrenmin
p84
g54
tp85
g3
(g4
g5
NtRp86
(dp87
g8
F1481861467.740813
sg9
F152.54346896542444
sg10
g11
((lp88
F1481861467.740813
aF1481861616.092273
aI600
tRp89
sg14
I144
sg15
g11
((lp90
I26
aI7
aI600
tRp91
sg18
I0
sg19
I600
sg20
Nsbs(S'jiemian'
g69
tp92
g3
(g4
g5
NtRp93
(dp94
g8
F1481792111.7362781
sg9
I600
sg10
g11
((lp95
F1481799385.630409
aI600
tRp96
sg14
I144
sg15
g11
((lp97
I1
aI600
tRp98
sg18
I0
sg19
I600
sg20
Nsbs(S'chinaconsulate'
p99
g21
tp100
g3
(g4
g5
NtRp101
(dp102
g8
F1481880008.487798
sg9
F23.788281278477776
sg10
g11
((lp103
F1481880008.487798
aI600
tRp104
sg14
I144
sg15
g11
((lp105
I39
aI600
tRp106
sg18
I0
sg19
I600
sg20
Nsbs(Vchinesenzherald
p107
g54
tp108
g3
(g4
g5
NtRp109
(dp110
g8
F1481876055.6980829
sg9
F51.238209007514847
sg10
g11
((lp111
F1481876055.6980829
aI600
tRp112
sg14
I144
sg15
g11
((lp113
I84
aI600
tRp114
sg18
I0
sg19
I600
sg20
Nsbs(Vskykiwichina
p115
g54
tp116
g3
(g4
g5
NtRp117
(dp118
g8
F1481871200.690614
sg9
F84.953538437684372
sg10
g11
((lp119
F1481871200.690614
aI600
tRp120
sg14
I144
sg15
g11
((lp121
I86
aI600
tRp122
sg18
I1
sg19
I600
sg20
F1481883328.6804881
sbs(S'renmin'
g21
tp123
g3
(g4
g5
NtRp124
(dp125
g8
F1481861467.323678
sg9
F152.54636570148998
sg10
g11
((lp126
F1481861467.323678
aI600
tRp127
sg14
I144
sg15
g11
((lp128
I55
aI600
tRp129
sg18
I0
sg19
I600
sg20
Nsbs(Vtoutiao
g38
tp130
g3
(g4
g5
NtRp131
(dp132
g8
F1481796379.0872779
sg9
I600
sg10
g11
((lp133
F1481798649.9877591
aF1481798794.774518
aF1481799012.2037449
aF1481799256.5049751
aF1481799401.1500211
aF1481799552.609936
aF1481800400.103579
aF1481800797.7393899
aF1481867389.1391389
aI600
tRp134
sg14
I144
sg15
g11
((lp135
I6
aI26
aI16
aI15
aI117
aI23
aI5
aI1
aI28
aI600
tRp136
sg18
I0
sg19
I600
sg20
Nsbs(Vjiemian
g38
tp137
g3
(g4
g5
NtRp138
(dp139
g8
F1481792112.0950561
sg9
I600
sg10
g11
((lp140
F1481799492.006608
aI600
tRp141
sg14
I144
sg15
g11
((lp142
I1
aI600
tRp143
sg18
I0
sg19
I600
sg20
Nsbs(Vchinaembassy
p144
g54
tp145
g3
(g4
g5
NtRp146
(dp147
g8
F1481879410.705735
sg9
F27.939545444316334
sg10
g11
((lp148
F1481879410.705735
aI600
tRp149
sg14
I144
sg15
g11
((lp150
I39
aI600
tRp151
sg18
I0
sg19
I600
sg20
Nsbs(S'chinesenzherald'
g21
tp152
g3
(g4
g5
NtRp153
(dp154
g8
F1481876055.347753
sg9
F51.240641812483467
sg10
g11
((lp155
F1481876055.347753
aI600
tRp156
sg14
I144
sg15
g11
((lp157
I84
aI600
tRp158
sg18
I0
sg19
I600
sg20
Nsbs(Vrenmin
g30
tp159
g3
(g4
g5
NtRp160
(dp161
g8
F1481861490.38168
sg9
F152.3862406462431
sg10
g11
((lp162
F1481861490.38168
aF1481861637.220937
aF1481865228.599849
aI600
tRp163
sg14
I144
sg15
g11
((lp164
I23
aI21
aI22
aI600
tRp165
sg18
I0
sg19
I600
sg20
Nsbs(S'toutiao'
g69
tp166
g3
(g4
g5
NtRp167
(dp168
g8
F1481795990.0142751
sg9
I600
sg10
g11
((lp169
F1481798649.561738
aF1481799996.837774
aF1481800403.0720689
aF1481867388.738642
aI600
tRp170
sg14
I144
sg15
g11
((lp171
I220
aI1
aI1
aI66
aI600
tRp172
sg18
I0
sg19
I600
sg20
Nsbs.