(dp1
(Vjiemian
S'retry'
p2
tp3
ccopy_reg
_reconstructor
p4
(cpyspider.libs.counter
TimebaseAverageWindowCounter
p5
c__builtin__
object
p6
NtRp7
(dp8
S'_first_data_time'
p9
F1482463249.56745
sS'window_size'
p10
F153.0531175269021
sS'times'
p11
ccollections
deque
p12
((lp13
F1482463249.56745
aF1482463439.2609439
aF1482463597.8278079
aF1482463847.9167509
aF1482463995.010262
aF1482466895.437021
aF1482467110.483268
aF1482467273.8968811
aF1482467529.7584081
aF1482467674.7089989
aI600
tRp14
sS'window_interval'
p15
I144
sS'values'
p16
g12
((lp17
I4
aI5
aI7
aI47
aI9
aI1
aI3
aI2
aI23
aI5
aI600
tRp18
sS'cache_value'
p19
I0
sS'max_window_size'
p20
I600
sS'cache_start'
p21
Nsbs(Vchinaconsulate
g2
tp22
g4
(g5
g6
NtRp23
(dp24
g9
F1482464322.9231501
sg10
F145.59925870100656
sg11
g12
((lp25
F1482464322.9231501
aF1482467970.1201539
aI600
tRp26
sg15
I144
sg16
g12
((lp27
I2
aI1
aI600
tRp28
sg19
I0
sg20
I600
sg21
Nsbs(S'chinaconsulate'
S'pending'
p29
tp30
g4
(g5
g6
NtRp31
(dp32
g9
F1482464277.0887289
sg10
F145.9175533619192
sg11
g12
((lp33
F1482464277.0887289
aI600
tRp34
sg15
I144
sg16
g12
((lp35
I39
aI600
tRp36
sg19
I0
sg20
I600
sg21
Nsbs(Vkannz
S'success'
p37
tp38
g4
(g5
g6
NtRp39
(dp40
g9
F1482465324.7298379
sg10
F138.64226805004807
sg11
g12
((lp41
F1482465324.7298379
aF1482465469.8447499
aF1482465613.980551
aF1482465758.0548589
aI600
tRp42
sg15
I144
sg16
g12
((lp43
I64
aI72
aI69
aI2
aI600
tRp44
sg19
I1
sg20
I600
sg21
F1482485290.0134971
sbs(S'jiemian'
g29
tp45
g4
(g5
g6
NtRp46
(dp47
g9
F1482463208.9065959
sg10
F153.33548466033406
sg11
g12
((lp48
F1482463208.9065959
aF1482463364.647047
aF1482463566.0346241
aF1482463808.4821279
aF1482464070.1560049
aI600
tRp49
sg15
I144
sg16
g12
((lp50
I99
aI70
aI130
aI1
aI1
aI600
tRp51
sg19
I0
sg20
I600
sg21
Nsbs(Vchinaconsulate
g37
tp52
g4
(g5
g6
NtRp53
(dp54
g9
F1482464277.422344
sg10
F145.91523655586772
sg11
g12
((lp55
F1482464277.422344
aI600
tRp56
sg15
I144
sg16
g12
((lp57
I38
aI600
tRp58
sg19
I0
sg20
I600
sg21
Nsbs(Vfmprc
g37
tp59
g4
(g5
g6
NtRp60
(dp61
g9
F1482464715.676069
sg10
F142.87180844446024
sg11
g12
((lp62
F1482464715.676069
aF1482464859.871115
aI600
tRp63
sg15
I144
sg16
g12
((lp64
I33
aI45
aI600
tRp65
sg19
I0
sg20
I600
sg21
Nsbs(S'chinaembassy'
g29
tp66
g4
(g5
g6
NtRp67
(dp68
g9
F1482464693.2265749
sg10
F143.02770755688348
sg11
g12
((lp69
F1482464693.2265749
aI600
tRp70
sg15
I144
sg16
g12
((lp71
I39
aI600
tRp72
sg19
I0
sg20
I600
sg21
Nsbs(Vchinaembassy
g2
tp73
g4
(g5
g6
NtRp74
(dp75
g9
F1482464772.8948829
sg10
F142.47445534004106
sg11
g12
((lp76
F1482464772.8948829
aF1482468465.5079119
aI600
tRp77
sg15
I144
sg16
g12
((lp78
I4
aI2
aI600
tRp79
sg19
I0
sg20
I600
sg21
Nsbs(Vkannz
g2
tp80
g4
(g5
g6
NtRp81
(dp82
g9
F1482465659.926872
sg10
F136.3145108057393
sg11
g12
((lp83
F1482465659.926872
aF1482469325.9553699
aI600
tRp84
sg15
I144
sg16
g12
((lp85
I3
aI1
aI600
tRp86
sg19
I0
sg20
I600
sg21
Nsbs(Vjiemian
g37
tp87
g4
(g5
g6
NtRp88
(dp89
g9
F1482463209.3152561
sg10
F153.33264670769373
sg11
g12
((lp90
F1482463209.3152561
aF1482463358.241451
aF1482463503.428479
aF1482463649.4846661
aF1482463828.35726
aF1482463973.3485601
aF1482466900.830579
aI600
tRp91
sg15
I144
sg16
g12
((lp92
I54
aI67
aI52
aI37
aI24
aI32
aI1
aI600
tRp93
sg19
I0
sg20
I600
sg21
Nsbs(S'fmprc'
g29
tp94
g4
(g5
g6
NtRp95
(dp96
g9
F1482464710.420198
sg10
F142.90830752087965
sg11
g12
((lp97
F1482464710.420198
aI600
tRp98
sg15
I144
sg16
g12
((lp99
I83
aI600
tRp100
sg19
I0
sg20
I600
sg21
Nsbs(Vchinaembassy
g37
tp101
g4
(g5
g6
NtRp102
(dp103
g9
F1482464693.6438119
sg10
F143.02481004264621
sg11
g12
((lp104
F1482464693.6438119
aF1482464838.3135209
aI600
tRp105
sg15
I144
sg16
g12
((lp106
I36
aI1
aI600
tRp107
sg19
I0
sg20
I600
sg21
Nsbs(Vfmprc
g2
tp108
g4
(g5
g6
NtRp109
(dp110
g9
F1482464826.2800021
sg10
F142.10372551282248
sg11
g12
((lp111
F1482464826.2800021
aF1482464984.6609881
aF1482468528.1564951
aI600
tRp112
sg15
I144
sg16
g12
((lp113
I9
aI1
aI5
aI600
tRp114
sg19
I0
sg20
I600
sg21
Nsbs(S'kannz'
g29
tp115
g4
(g5
g6
NtRp116
(dp117
g9
F1482465324.3960609
sg10
F138.64458591077062
sg11
g12
((lp118
F1482465324.3960609
aF1482465673.110718
aI600
tRp119
sg15
I144
sg16
g12
((lp120
I171
aI40
aI600
tRp121
sg19
I0
sg20
I600
sg21
Nsbs.